
cache-simulator:     file format elf64-x86-64


Disassembly of section .init:

0000000000400988 <_init>:
  400988:	48 83 ec 08          
  40098c:	48 8b 05 65 36 20 00 
  400993:	48 85 c0             
  400996:	74 05                
  400998:	e8 b3 01 00 00       
  40099d:	48 83 c4 08          
  4009a1:	c3                   

Disassembly of section .plt:

00000000004009b0 <free@plt-0x10>:
  4009b0:	ff 35 52 36 20 00    
  4009b6:	ff 25 54 36 20 00    
  4009bc:	0f 1f 40 00          

00000000004009c0 <free@plt>:
  4009c0:	ff 25 52 36 20 00    
  4009c6:	68 00 00 00 00       
  4009cb:	e9 e0 ff ff ff       

00000000004009d0 <strncmp@plt>:
  4009d0:	ff 25 4a 36 20 00    
  4009d6:	68 01 00 00 00       
  4009db:	e9 d0 ff ff ff       

00000000004009e0 <puts@plt>:
  4009e0:	ff 25 42 36 20 00    
  4009e6:	68 02 00 00 00       
  4009eb:	e9 c0 ff ff ff       

00000000004009f0 <vsnprintf@plt>:
  4009f0:	ff 25 3a 36 20 00    
  4009f6:	68 03 00 00 00       
  4009fb:	e9 b0 ff ff ff       

0000000000400a00 <atof@plt>:
  400a00:	ff 25 32 36 20 00    
  400a06:	68 04 00 00 00       
  400a0b:	e9 a0 ff ff ff       

0000000000400a10 <fclose@plt>:
  400a10:	ff 25 2a 36 20 00    
  400a16:	68 05 00 00 00       
  400a1b:	e9 90 ff ff ff       

0000000000400a20 <opendir@plt>:
  400a20:	ff 25 22 36 20 00    
  400a26:	68 06 00 00 00       
  400a2b:	e9 80 ff ff ff       

0000000000400a30 <strlen@plt>:
  400a30:	ff 25 1a 36 20 00    
  400a36:	68 07 00 00 00       
  400a3b:	e9 70 ff ff ff       

0000000000400a40 <__stack_chk_fail@plt>:
  400a40:	ff 25 12 36 20 00    
  400a46:	68 08 00 00 00       
  400a4b:	e9 60 ff ff ff       

0000000000400a50 <strchr@plt>:
  400a50:	ff 25 0a 36 20 00    
  400a56:	68 09 00 00 00       
  400a5b:	e9 50 ff ff ff       

0000000000400a60 <printf@plt>:
  400a60:	ff 25 02 36 20 00    
  400a66:	68 0a 00 00 00       
  400a6b:	e9 40 ff ff ff       

0000000000400a70 <closedir@plt>:
  400a70:	ff 25 fa 35 20 00    
  400a76:	68 0b 00 00 00       
  400a7b:	e9 30 ff ff ff       

0000000000400a80 <__libc_start_main@plt>:
  400a80:	ff 25 f2 35 20 00    
  400a86:	68 0c 00 00 00       
  400a8b:	e9 20 ff ff ff       

0000000000400a90 <fgets@plt>:
  400a90:	ff 25 ea 35 20 00    
  400a96:	68 0d 00 00 00       
  400a9b:	e9 10 ff ff ff       

0000000000400aa0 <strcmp@plt>:
  400aa0:	ff 25 e2 35 20 00    
  400aa6:	68 0e 00 00 00       
  400aab:	e9 00 ff ff ff       

0000000000400ab0 <fprintf@plt>:
  400ab0:	ff 25 da 35 20 00    
  400ab6:	68 0f 00 00 00       
  400abb:	e9 f0 fe ff ff       

0000000000400ac0 <memcpy@plt>:
  400ac0:	ff 25 d2 35 20 00    
  400ac6:	68 10 00 00 00       
  400acb:	e9 e0 fe ff ff       

0000000000400ad0 <__xstat@plt>:
  400ad0:	ff 25 ca 35 20 00    
  400ad6:	68 11 00 00 00       
  400adb:	e9 d0 fe ff ff       

0000000000400ae0 <readdir@plt>:
  400ae0:	ff 25 c2 35 20 00    
  400ae6:	68 12 00 00 00       
  400aeb:	e9 c0 fe ff ff       

0000000000400af0 <malloc@plt>:
  400af0:	ff 25 ba 35 20 00    
  400af6:	68 13 00 00 00       
  400afb:	e9 b0 fe ff ff       

0000000000400b00 <realloc@plt>:
  400b00:	ff 25 b2 35 20 00    
  400b06:	68 14 00 00 00       
  400b0b:	e9 a0 fe ff ff       

0000000000400b10 <fopen@plt>:
  400b10:	ff 25 aa 35 20 00    
  400b16:	68 15 00 00 00       
  400b1b:	e9 90 fe ff ff       

0000000000400b20 <strtok@plt>:
  400b20:	ff 25 a2 35 20 00    
  400b26:	68 16 00 00 00       
  400b2b:	e9 80 fe ff ff       

0000000000400b30 <atoi@plt>:
  400b30:	ff 25 9a 35 20 00    
  400b36:	68 17 00 00 00       
  400b3b:	e9 70 fe ff ff       

0000000000400b40 <__ctype_b_loc@plt>:
  400b40:	ff 25 92 35 20 00    
  400b46:	68 18 00 00 00       
  400b4b:	e9 60 fe ff ff       

Disassembly of section .plt.got:

0000000000400b50 <.plt.got>:
  400b50:	ff 25 a2 34 20 00    
  400b56:	66 90                

Disassembly of section .text:

0000000000400b60 <_start>:
  400b60:	31 ed                
  400b62:	49 89 d1             
  400b65:	5e                   
  400b66:	48 89 e2             
  400b69:	48 83 e4 f0          
  400b6d:	50                   
  400b6e:	54                   
  400b6f:	49 c7 c0 e0 2e 40 00 
  400b76:	48 c7 c1 70 2e 40 00 
  400b7d:	48 c7 c7 76 2b 40 00 
  400b84:	e8 f7 fe ff ff       
  400b89:	f4                   
  400b8a:	66 0f 1f 44 00 00    

0000000000400b90 <deregister_tm_clones>:
  400b90:	b8 4f 41 60 00       
  400b95:	55                   
  400b96:	48 2d 48 41 60 00    
  400b9c:	48 83 f8 0e          
  400ba0:	48 89 e5             
  400ba3:	77 02                
  400ba5:	5d                   
  400ba6:	c3                   
  400ba7:	b8 00 00 00 00       
  400bac:	48 85 c0             
  400baf:	74 f4                
  400bb1:	5d                   
  400bb2:	bf 48 41 60 00       
  400bb7:	ff e0                
  400bb9:	0f 1f 80 00 00 00 00 

0000000000400bc0 <register_tm_clones>:
  400bc0:	b8 48 41 60 00       
  400bc5:	55                   
  400bc6:	48 2d 48 41 60 00    
  400bcc:	48 c1 f8 03          
  400bd0:	48 89 e5             
  400bd3:	48 89 c2             
  400bd6:	48 c1 ea 3f          
  400bda:	48 01 d0             
  400bdd:	48 89 c6             
  400be0:	48 d1 fe             
  400be3:	75 02                
  400be5:	5d                   
  400be6:	c3                   
  400be7:	ba 00 00 00 00       
  400bec:	48 85 d2             
  400bef:	74 f4                
  400bf1:	5d                   
  400bf2:	bf 48 41 60 00       
  400bf7:	ff e2                
  400bf9:	0f 1f 80 00 00 00 00 

0000000000400c00 <__do_global_dtors_aux>:
  400c00:	80 3d 61 35 20 00 00 
  400c07:	75 11                
  400c09:	55                   
  400c0a:	48 89 e5             
  400c0d:	e8 7e ff ff ff       
  400c12:	5d                   
  400c13:	c6 05 4e 35 20 00 01 
  400c1a:	f3 c3                
  400c1c:	0f 1f 40 00          

0000000000400c20 <frame_dummy>:
  400c20:	48 83 3d f8 31 20 00 
  400c27:	00 
  400c28:	74 1b                
  400c2a:	b8 00 00 00 00       
  400c2f:	48 85 c0             
  400c32:	74 11                
  400c34:	55                   
  400c35:	bf 20 3e 60 00       
  400c3a:	48 89 e5             
  400c3d:	ff d0                
  400c3f:	5d                   
  400c40:	e9 7b ff ff ff       
  400c45:	e9 76 ff ff ff       

0000000000400c4a <inclusive_init>:
  400c4a:	55                   
  400c4b:	48 89 e5             
  400c4e:	89 7d fc             
  400c51:	48 89 75 f0          
  400c55:	b8 00 00 00 00       
  400c5a:	5d                   
  400c5b:	c3                   

0000000000400c5c <inclusive_load>:
  400c5c:	55                   
  400c5d:	48 89 e5             
  400c60:	48 89 7d f8          
  400c64:	48 89 75 f0          
  400c68:	48 89 55 e8          
  400c6c:	b8 01 00 00 00       
  400c71:	5d                   
  400c72:	c3                   

0000000000400c73 <inclusive_writeback>:
  400c73:	55                   
  400c74:	48 89 e5             
  400c77:	48 89 7d f8          
  400c7b:	48 89 75 f0          
  400c7f:	48 89 55 e8          
  400c83:	b8 01 00 00 00       
  400c88:	5d                   
  400c89:	c3                   

0000000000400c8a <inclusive_invalid>:
  400c8a:	55                   
  400c8b:	48 89 e5             
  400c8e:	89 7d fc             
  400c91:	48 89 75 f0          
  400c95:	5d                   
  400c96:	c3                   

0000000000400c97 <inclusive>:
  400c97:	55                   
  400c98:	48 89 e5             
  400c9b:	89 7d fc             
  400c9e:	48 89 75 f0          
  400ca2:	48 89 55 e8          
  400ca6:	48 89 4d e0          
  400caa:	5d                   
  400cab:	c3                   

0000000000400cac <str_strdup>:
  400cac:	55                   
  400cad:	48 89 e5             
  400cb0:	48 83 ec 20          
  400cb4:	48 89 7d e8          
  400cb8:	48 8b 45 e8          
  400cbc:	48 89 c7             
  400cbf:	e8 6c fd ff ff       
  400cc4:	48 83 c0 01          
  400cc8:	48 89 45 f0          
  400ccc:	48 8b 45 f0          
  400cd0:	48 89 c7             
  400cd3:	e8 18 fe ff ff       
  400cd8:	48 89 45 f8          
  400cdc:	48 83 7d f8 00       
  400ce1:	75 07                
  400ce3:	b8 00 00 00 00       
  400ce8:	eb 1b                
  400cea:	48 8b 55 f0          
  400cee:	48 8b 4d e8          
  400cf2:	48 8b 45 f8          
  400cf6:	48 89 ce             
  400cf9:	48 89 c7             
  400cfc:	e8 bf fd ff ff       
  400d01:	48 8b 45 f8          
  400d05:	c9                   
  400d06:	c3                   

0000000000400d07 <str_rtrim>:
  400d07:	55                   
  400d08:	48 89 e5             
  400d0b:	48 83 ec 20          
  400d0f:	48 89 7d e8          
  400d13:	48 89 75 e0          
  400d17:	c7 45 f4 00 00 00 00 
  400d1e:	48 83 7d e8 00       
  400d23:	74 0b                
  400d25:	48 8b 45 e8          
  400d29:	0f b6 00             
  400d2c:	84 c0                
  400d2e:	75 05                
  400d30:	8b 45 f4             
  400d33:	eb 57                
  400d35:	48 8b 45 e8          
  400d39:	48 89 c7             
  400d3c:	e8 ef fc ff ff       
  400d41:	48 8d 50 ff          
  400d45:	48 8b 45 e8          
  400d49:	48 01 d0             
  400d4c:	48 89 45 f8          
  400d50:	eb 10                
  400d52:	48 8b 45 f8          
  400d56:	c6 00 00             
  400d59:	83 45 f4 01          
  400d5d:	48 83 6d f8 01       
  400d62:	48 8b 45 f8          
  400d66:	48 3b 45 e8          
  400d6a:	72 1d                
  400d6c:	48 8b 45 f8          
  400d70:	0f b6 00             
  400d73:	0f be d0             
  400d76:	48 8b 45 e0          
  400d7a:	89 d6                
  400d7c:	48 89 c7             
  400d7f:	e8 cc fc ff ff       
  400d84:	48 85 c0             
  400d87:	75 c9                
  400d89:	8b 45 f4             
  400d8c:	c9                   
  400d8d:	c3                   

0000000000400d8e <str_ltrim>:
  400d8e:	55                   
  400d8f:	48 89 e5             
  400d92:	48 83 ec 20          
  400d96:	48 89 7d e8          
  400d9a:	48 89 75 e0          
  400d9e:	48 83 7d e8 00       
  400da3:	74 7c                
  400da5:	48 8b 45 e8          
  400da9:	0f b6 00             
  400dac:	84 c0                
  400dae:	74 71                
  400db0:	48 8b 45 e8          
  400db4:	48 89 45 f8          
  400db8:	eb 05                
  400dba:	48 83 45 f8 01       
  400dbf:	48 8b 45 f8          
  400dc3:	0f b6 00             
  400dc6:	84 c0                
  400dc8:	74 1d                
  400dca:	48 8b 45 f8          
  400dce:	0f b6 00             
  400dd1:	0f be d0             
  400dd4:	48 8b 45 e0          
  400dd8:	89 d6                
  400dda:	48 89 c7             
  400ddd:	e8 6e fc ff ff       
  400de2:	48 85 c0             
  400de5:	75 d3                
  400de7:	48 8b 45 f8          
  400deb:	48 3b 45 e8          
  400def:	75 1b                
  400df1:	eb 2f                
  400df3:	48 8b 45 f8          
  400df7:	0f b6 10             
  400dfa:	48 8b 45 e8          
  400dfe:	88 10                
  400e00:	48 83 45 e8 01       
  400e05:	48 83 45 f8 01       
  400e0a:	eb 01                
  400e0c:	90                   
  400e0d:	48 8b 45 f8          
  400e11:	0f b6 00             
  400e14:	84 c0                
  400e16:	75 db                
  400e18:	48 8b 45 e8          
  400e1c:	c6 00 00             
  400e1f:	eb 01                
  400e21:	90                   
  400e22:	c9                   
  400e23:	c3                   

0000000000400e24 <str_lrtrim>:
  400e24:	55                   
  400e25:	48 89 e5             
  400e28:	48 83 ec 10          
  400e2c:	48 89 7d f8          
  400e30:	48 89 75 f0          
  400e34:	48 8b 55 f0          
  400e38:	48 8b 45 f8          
  400e3c:	48 89 d6             
  400e3f:	48 89 c7             
  400e42:	e8 c0 fe ff ff       
  400e47:	48 8b 55 f0          
  400e4b:	48 8b 45 f8          
  400e4f:	48 89 d6             
  400e52:	48 89 c7             
  400e55:	e8 34 ff ff ff       
  400e5a:	c9                   
  400e5b:	c3                   

0000000000400e5c <str_dvsprintf>:
  400e5c:	55                   
  400e5d:	48 89 e5             
  400e60:	48 83 ec 50          
  400e64:	48 89 7d c8          
  400e68:	48 89 75 c0          
  400e6c:	48 89 55 b8          
  400e70:	48 c7 45 e0 00 00 00 
  400e77:	00 
  400e78:	c7 45 d8 00 04 00 00 
  400e7f:	8b 45 d8             
  400e82:	48 98                
  400e84:	48 89 c7             
  400e87:	e8 64 fc ff ff       
  400e8c:	48 89 45 e0          
  400e90:	48 8d 45 e8          
  400e94:	48 8b 55 b8          
  400e98:	48 8b 0a             
  400e9b:	48 89 08             
  400e9e:	48 8b 4a 08          
  400ea2:	48 89 48 08          
  400ea6:	48 8b 52 10          
  400eaa:	48 89 50 10          
  400eae:	8b 45 d8             
  400eb1:	48 63 f0             
  400eb4:	48 8d 4d e8          
  400eb8:	48 8b 55 c0          
  400ebc:	48 8b 45 e0          
  400ec0:	48 89 c7             
  400ec3:	e8 28 fb ff ff       
  400ec8:	89 45 dc             
  400ecb:	83 7d dc 00          
  400ecf:	78 08                
  400ed1:	8b 45 dc             
  400ed4:	3b 45 d8             
  400ed7:	7c 3a                
  400ed9:	83 7d dc ff          
  400edd:	75 1a                
  400edf:	8b 55 d8             
  400ee2:	89 d0                
  400ee4:	01 c0                
  400ee6:	01 d0                
  400ee8:	89 c2                
  400eea:	c1 ea 1f             
  400eed:	01 d0                
  400eef:	d1 f8                
  400ef1:	83 c0 01             
  400ef4:	89 45 d8             
  400ef7:	eb 09                
  400ef9:	8b 45 dc             
  400efc:	83 c0 01             
  400eff:	89 45 d8             
  400f02:	48 8b 45 e0          
  400f06:	48 89 c7             
  400f09:	e8 b2 fa ff ff       
  400f0e:	e9 6c ff ff ff       
  400f13:	90                   
  400f14:	48 8b 45 c8          
  400f18:	48 89 c7             
  400f1b:	e8 a0 fa ff ff       
  400f20:	48 8b 45 e0          
  400f24:	c9                   
  400f25:	c3                   

0000000000400f26 <str_dsprintf>:
  400f26:	55                   
  400f27:	48 89 e5             
  400f2a:	48 81 ec e0 00 00 00 
  400f31:	48 89 bd 28 ff ff ff 
  400f38:	48 89 95 60 ff ff ff 
  400f3f:	48 89 8d 68 ff ff ff 
  400f46:	4c 89 85 70 ff ff ff 
  400f4d:	4c 89 8d 78 ff ff ff 
  400f54:	84 c0                
  400f56:	74 20                
  400f58:	0f 29 45 80          
  400f5c:	0f 29 4d 90          
  400f60:	0f 29 55 a0          
  400f64:	0f 29 5d b0          
  400f68:	0f 29 65 c0          
  400f6c:	0f 29 6d d0          
  400f70:	0f 29 75 e0          
  400f74:	0f 29 7d f0          
  400f78:	48 89 b5 20 ff ff ff 
  400f7f:	c7 85 38 ff ff ff 10 
  400f86:	00 00 00 
  400f89:	c7 85 3c ff ff ff 30 
  400f90:	00 00 00 
  400f93:	48 8d 45 10          
  400f97:	48 89 85 40 ff ff ff 
  400f9e:	48 8d 85 50 ff ff ff 
  400fa5:	48 89 85 48 ff ff ff 
  400fac:	48 8d 95 38 ff ff ff 
  400fb3:	48 8b 8d 20 ff ff ff 
  400fba:	48 8b 85 28 ff ff ff 
  400fc1:	48 89 ce             
  400fc4:	48 89 c7             
  400fc7:	e8 90 fe ff ff       
  400fcc:	48 89 85 30 ff ff ff 
  400fd3:	48 8b 85 30 ff ff ff 
  400fda:	c9                   
  400fdb:	c3                   

0000000000400fdc <str_is_utf8>:
  400fdc:	55                   
  400fdd:	48 89 e5             
  400fe0:	48 89 7d c8          
  400fe4:	48 c7 45 e8 00 00 00 
  400feb:	00 
  400fec:	e9 01 03 00 00       
  400ff1:	48 8b 45 c8          
  400ff5:	0f b6 00             
  400ff8:	84 c0                
  400ffa:	78 0a                
  400ffc:	48 83 45 c8 01       
  401001:	e9 ec 02 00 00       
  401006:	48 8b 45 c8          
  40100a:	0f b6 00             
  40100d:	0f be c0             
  401010:	25 c0 00 00 00       
  401015:	3d 80 00 00 00       
  40101a:	74 16                
  40101c:	48 8b 45 c8          
  401020:	0f b6 00             
  401023:	0f be c0             
  401026:	25 fe 00 00 00       
  40102b:	3d fe 00 00 00       
  401030:	75 0a                
  401032:	b8 ff ff ff ff       
  401037:	e9 ca 02 00 00       
  40103c:	48 8b 45 c8          
  401040:	48 89 45 f0          
  401044:	48 8b 45 c8          
  401048:	0f b6 00             
  40104b:	0f be c0             
  40104e:	25 e0 00 00 00       
  401053:	3d c0 00 00 00       
  401058:	75 0a                
  40105a:	48 c7 45 e8 01 00 00 
  401061:	00 
  401062:	eb 7e                
  401064:	48 8b 45 c8          
  401068:	0f b6 00             
  40106b:	0f be c0             
  40106e:	25 f0 00 00 00       
  401073:	3d e0 00 00 00       
  401078:	75 0a                
  40107a:	48 c7 45 e8 02 00 00 
  401081:	00 
  401082:	eb 5e                
  401084:	48 8b 45 c8          
  401088:	0f b6 00             
  40108b:	0f be c0             
  40108e:	25 f8 00 00 00       
  401093:	3d f0 00 00 00       
  401098:	75 0a                
  40109a:	48 c7 45 e8 03 00 00 
  4010a1:	00 
  4010a2:	eb 3e                
  4010a4:	48 8b 45 c8          
  4010a8:	0f b6 00             
  4010ab:	0f be c0             
  4010ae:	25 fc 00 00 00       
  4010b3:	3d f8 00 00 00       
  4010b8:	75 0a                
  4010ba:	48 c7 45 e8 04 00 00 
  4010c1:	00 
  4010c2:	eb 1e                
  4010c4:	48 8b 45 c8          
  4010c8:	0f b6 00             
  4010cb:	0f be c0             
  4010ce:	25 fe 00 00 00       
  4010d3:	3d fc 00 00 00       
  4010d8:	75 08                
  4010da:	48 c7 45 e8 05 00 00 
  4010e1:	00 
  4010e2:	48 8b 45 e8          
  4010e6:	48 83 c0 01          
  4010ea:	48 89 45 f8          
  4010ee:	48 83 45 c8 01       
  4010f3:	eb 2f                
  4010f5:	48 8b 45 c8          
  4010f9:	0f b6 00             
  4010fc:	0f be c0             
  4010ff:	25 c0 00 00 00       
  401104:	3d 80 00 00 00       
  401109:	0f 95 c0             
  40110c:	48 83 45 c8 01       
  401111:	84 c0                
  401113:	74 0a                
  401115:	b8 ff ff ff ff       
  40111a:	e9 e7 01 00 00       
  40111f:	48 83 6d e8 01       
  401124:	48 83 7d e8 00       
  401129:	75 ca                
  40112b:	48 8b 45 f0          
  40112f:	0f b6 00             
  401132:	0f b6 c0             
  401135:	25 fe 00 00 00       
  40113a:	3d c0 00 00 00       
  40113f:	0f 84 80 00 00 00    
  401145:	48 8b 45 f0          
  401149:	0f b6 00             
  40114c:	3c e0                
  40114e:	75 15                
  401150:	48 8b 45 f0          
  401154:	48 83 c0 01          
  401158:	0f b6 00             
  40115b:	0f b6 c0             
  40115e:	83 e0 20             
  401161:	85 c0                
  401163:	74 60                
  401165:	48 8b 45 f0          
  401169:	0f b6 00             
  40116c:	3c f0                
  40116e:	75 15                
  401170:	48 8b 45 f0          
  401174:	48 83 c0 01          
  401178:	0f b6 00             
  40117b:	0f b6 c0             
  40117e:	83 e0 30             
  401181:	85 c0                
  401183:	74 40                
  401185:	48 8b 45 f0          
  401189:	0f b6 00             
  40118c:	3c f8                
  40118e:	75 15                
  401190:	48 8b 45 f0          
  401194:	48 83 c0 01          
  401198:	0f b6 00             
  40119b:	0f b6 c0             
  40119e:	83 e0 38             
  4011a1:	85 c0                
  4011a3:	74 20                
  4011a5:	48 8b 45 f0          
  4011a9:	0f b6 00             
  4011ac:	3c fc                
  4011ae:	75 1f                
  4011b0:	48 8b 45 f0          
  4011b4:	48 83 c0 01          
  4011b8:	0f b6 00             
  4011bb:	0f b6 c0             
  4011be:	83 e0 3c             
  4011c1:	85 c0                
  4011c3:	75 0a                
  4011c5:	b8 ff ff ff ff       
  4011ca:	e9 37 01 00 00       
  4011cf:	c7 45 dc 00 00 00 00 
  4011d6:	48 8b 45 f0          
  4011da:	0f b6 00             
  4011dd:	0f b6 c0             
  4011e0:	25 e0 00 00 00       
  4011e5:	3d c0 00 00 00       
  4011ea:	75 15                
  4011ec:	48 8b 45 f0          
  4011f0:	0f b6 00             
  4011f3:	0f b6 c0             
  4011f6:	83 e0 1f             
  4011f9:	89 45 dc             
  4011fc:	e9 9e 00 00 00       
  401201:	48 8b 45 f0          
  401205:	0f b6 00             
  401208:	0f b6 c0             
  40120b:	25 f0 00 00 00       
  401210:	3d e0 00 00 00       
  401215:	75 12                
  401217:	48 8b 45 f0          
  40121b:	0f b6 00             
  40121e:	0f b6 c0             
  401221:	83 e0 0f             
  401224:	89 45 dc             
  401227:	eb 76                
  401229:	48 8b 45 f0          
  40122d:	0f b6 00             
  401230:	0f b6 c0             
  401233:	25 f8 00 00 00       
  401238:	3d f0 00 00 00       
  40123d:	75 12                
  40123f:	48 8b 45 f0          
  401243:	0f b6 00             
  401246:	0f b6 c0             
  401249:	83 e0 07             
  40124c:	89 45 dc             
  40124f:	eb 4e                
  401251:	48 8b 45 f0          
  401255:	0f b6 00             
  401258:	0f b6 c0             
  40125b:	25 fc 00 00 00       
  401260:	3d f8 00 00 00       
  401265:	75 12                
  401267:	48 8b 45 f0          
  40126b:	0f b6 00             
  40126e:	0f b6 c0             
  401271:	83 e0 03             
  401274:	89 45 dc             
  401277:	eb 26                
  401279:	48 8b 45 f0          
  40127d:	0f b6 00             
  401280:	0f b6 c0             
  401283:	25 fe 00 00 00       
  401288:	3d fc 00 00 00       
  40128d:	75 10                
  40128f:	48 8b 45 f0          
  401293:	0f b6 00             
  401296:	0f b6 c0             
  401299:	83 e0 01             
  40129c:	89 45 dc             
  40129f:	48 c7 45 e0 01 00 00 
  4012a6:	00 
  4012a7:	eb 20                
  4012a9:	c1 65 dc 06          
  4012ad:	48 8b 45 e0          
  4012b1:	48 8b 55 f0          
  4012b5:	48 01 d0             
  4012b8:	0f b6 00             
  4012bb:	0f b6 c0             
  4012be:	83 e0 3f             
  4012c1:	01 45 dc             
  4012c4:	48 83 45 e0 01       
  4012c9:	48 8b 45 e0          
  4012cd:	48 3b 45 f8          
  4012d1:	72 d6                
  4012d3:	81 7d dc ff ff 10 00 
  4012da:	77 0f                
  4012dc:	8b 45 dc             
  4012df:	25 00 f8 00 00       
  4012e4:	3d 00 d8 00 00       
  4012e9:	75 07                
  4012eb:	b8 ff ff ff ff       
  4012f0:	eb 14                
  4012f2:	48 8b 45 c8          
  4012f6:	0f b6 00             
  4012f9:	84 c0                
  4012fb:	0f 85 f0 fc ff ff    
  401301:	b8 00 00 00 00       
  401306:	5d                   
  401307:	c3                   

0000000000401308 <is_uint_n_range>:
  401308:	55                   
  401309:	48 89 e5             
  40130c:	48 83 ec 60          
  401310:	48 89 7d d8          
  401314:	48 89 75 d0          
  401318:	48 89 55 c8          
  40131c:	48 89 4d c0          
  401320:	4c 89 45 b8          
  401324:	4c 89 4d b0          
  401328:	48 c7 45 f0 ff ff ff 
  40132f:	ff 
  401330:	48 c7 45 e8 00 00 00 
  401337:	00 
  401338:	c7 45 e4 00 00 00 00 
  40133f:	48 8b 45 d8          
  401343:	0f b6 00             
  401346:	84 c0                
  401348:	74 24                
  40134a:	48 83 7d d0 00       
  40134f:	74 1d                
  401351:	48 83 7d c0 08       
  401356:	77 16                
  401358:	48 83 7d c0 00       
  40135d:	0f 85 c2 00 00 00    
  401363:	48 83 7d c8 00       
  401368:	0f 84 b7 00 00 00    
  40136e:	b8 ff ff ff ff       
  401373:	e9 30 01 00 00       
  401378:	e8 c3 f7 ff ff       
  40137d:	48 8b 10             
  401380:	48 8b 45 d8          
  401384:	0f b6 00             
  401387:	48 0f be c0          
  40138b:	48 01 c0             
  40138e:	48 01 d0             
  401391:	0f b7 00             
  401394:	0f b7 c0             
  401397:	25 00 08 00 00       
  40139c:	85 c0                
  40139e:	75 0a                
  4013a0:	b8 ff ff ff ff       
  4013a5:	e9 fe 00 00 00       
  4013aa:	48 8b 45 d8          
  4013ae:	0f b6 00             
  4013b1:	83 e8 30             
  4013b4:	0f b6 c0             
  4013b7:	48 89 45 f8          
  4013bb:	83 45 e4 01          
  4013bf:	83 7d e4 13          
  4013c3:	7e 3a                
  4013c5:	48 8b 45 f8          
  4013c9:	48 8b 55 f0          
  4013cd:	48 89 d1             
  4013d0:	48 29 c1             
  4013d3:	48 89 4d a8          
  4013d7:	48 ba cd cc cc cc cc 
  4013de:	cc cc cc 
  4013e1:	48 8b 45 a8          
  4013e5:	48 f7 e2             
  4013e8:	48 c1 ea 03          
  4013ec:	48 8b 45 e8          
  4013f0:	48 39 c2             
  4013f3:	73 0a                
  4013f5:	b8 ff ff ff ff       
  4013fa:	e9 a9 00 00 00       
  4013ff:	48 8b 55 e8          
  401403:	48 89 d0             
  401406:	48 c1 e0 02          
  40140a:	48 01 d0             
  40140d:	48 01 c0             
  401410:	48 89 c2             
  401413:	48 8b 45 f8          
  401417:	48 01 d0             
  40141a:	48 89 45 e8          
  40141e:	48 83 45 d8 01       
  401423:	eb 01                
  401425:	90                   
  401426:	48 8b 45 d8          
  40142a:	0f b6 00             
  40142d:	84 c0                
  40142f:	74 15                
  401431:	48 83 7d d0 00       
  401436:	0f 95 c0             
  401439:	48 83 6d d0 01       
  40143e:	84 c0                
  401440:	0f 85 32 ff ff ff    
  401446:	48 8b 45 e8          
  40144a:	48 39 45 b8          
  40144e:	77 0a                
  401450:	48 8b 45 e8          
  401454:	48 3b 45 b0          
  401458:	76 07                
  40145a:	b8 ff ff ff ff       
  40145f:	eb 47                
  401461:	48 83 7d c8 00       
  401466:	74 3b                
  401468:	48 8b 45 c0          
  40146c:	ba 08 00 00 00       
  401471:	89 d1                
  401473:	29 c1                
  401475:	89 c8                
  401477:	c1 e0 08             
  40147a:	66 89 45 e2          
  40147e:	48 8d 45 e2          
  401482:	0f b6 00             
  401485:	0f b6 c0             
  401488:	48 8d 55 e8          
  40148c:	48 8d 0c 02          
  401490:	48 8b 55 c0          
  401494:	48 8b 45 c8          
  401498:	48 89 ce             
  40149b:	48 89 c7             
  40149e:	e8 1d f6 ff ff       
  4014a3:	b8 00 00 00 00       
  4014a8:	c9                   
  4014a9:	c3                   

00000000004014aa <suffix2factor>:
  4014aa:	55                   
  4014ab:	48 89 e5             
  4014ae:	89 f8                
  4014b0:	88 45 fc             
  4014b3:	0f be 45 fc          
  4014b7:	83 e8 47             
  4014ba:	83 f8 30             
  4014bd:	77 50                
  4014bf:	89 c0                
  4014c1:	48 8b 04 c5 28 2f 40 
  4014c8:	00 
  4014c9:	ff e0                
  4014cb:	b8 00 04 00 00       
  4014d0:	eb 42                
  4014d2:	b8 00 00 10 00       
  4014d7:	eb 3b                
  4014d9:	b8 00 00 00 40       
  4014de:	eb 34                
  4014e0:	48 b8 00 00 00 00 00 
  4014e7:	01 00 00 
  4014ea:	eb 28                
  4014ec:	b8 01 00 00 00       
  4014f1:	eb 21                
  4014f3:	b8 3c 00 00 00       
  4014f8:	eb 1a                
  4014fa:	b8 10 0e 00 00       
  4014ff:	eb 13                
  401501:	b8 80 51 01 00       
  401506:	eb 0c                
  401508:	b8 80 3a 09 00       
  40150d:	eb 05                
  40150f:	b8 01 00 00 00       
  401514:	5d                   
  401515:	c3                   

0000000000401516 <str2uint64>:
  401516:	55                   
  401517:	48 89 e5             
  40151a:	48 83 ec 40          
  40151e:	48 89 7d d8          
  401522:	48 89 75 d0          
  401526:	48 89 55 c8          
  40152a:	48 c7 45 e8 01 00 00 
  401531:	00 
  401532:	48 8b 45 d8          
  401536:	48 89 c7             
  401539:	e8 f2 f4 ff ff       
  40153e:	48 89 45 f0          
  401542:	48 8b 45 f0          
  401546:	48 8d 50 ff          
  40154a:	48 8b 45 d8          
  40154e:	48 01 d0             
  401551:	48 89 45 f8          
  401555:	48 8b 45 f8          
  401559:	0f b6 00             
  40155c:	0f be d0             
  40155f:	48 8b 45 d0          
  401563:	89 d6                
  401565:	48 89 c7             
  401568:	e8 e3 f4 ff ff       
  40156d:	48 85 c0             
  401570:	74 1a                
  401572:	48 8b 45 f8          
  401576:	0f b6 00             
  401579:	0f be c0             
  40157c:	89 c7                
  40157e:	e8 27 ff ff ff       
  401583:	48 89 45 e8          
  401587:	48 83 6d f0 01       
  40158c:	48 8b 55 c8          
  401590:	48 8b 75 f0          
  401594:	48 8b 45 d8          
  401598:	49 c7 c1 ff ff ff ff 
  40159f:	41 b8 00 00 00 00    
  4015a5:	b9 08 00 00 00       
  4015aa:	48 89 c7             
  4015ad:	e8 56 fd ff ff       
  4015b2:	89 45 e4             
  4015b5:	83 7d e4 00          
  4015b9:	75 16                
  4015bb:	48 8b 45 c8          
  4015bf:	48 8b 00             
  4015c2:	48 89 c2             
  4015c5:	48 0f af 55 e8       
  4015ca:	48 8b 45 c8          
  4015ce:	48 89 10             
  4015d1:	8b 45 e4             
  4015d4:	c9                   
  4015d5:	c3                   

00000000004015d6 <str2double>:
  4015d6:	55                   
  4015d7:	48 89 e5             
  4015da:	48 83 ec 30          
  4015de:	48 89 7d e8          
  4015e2:	48 8b 45 e8          
  4015e6:	48 89 c7             
  4015e9:	e8 42 f4 ff ff       
  4015ee:	48 83 e8 01          
  4015f2:	48 89 45 f8          
  4015f6:	48 8b 45 e8          
  4015fa:	48 89 c7             
  4015fd:	e8 fe f3 ff ff       
  401602:	f2 0f 11 45 e0       
  401607:	48 8b 45 f8          
  40160b:	48 8b 55 e8          
  40160f:	48 01 d0             
  401612:	0f b6 00             
  401615:	0f be c0             
  401618:	89 c7                
  40161a:	e8 8b fe ff ff       
  40161f:	48 85 c0             
  401622:	78 07                
  401624:	f2 48 0f 2a c0       
  401629:	eb 15                
  40162b:	48 89 c2             
  40162e:	48 d1 ea             
  401631:	83 e0 01             
  401634:	48 09 c2             
  401637:	f2 48 0f 2a c2       
  40163c:	f2 0f 58 c0          
  401640:	f2 0f 59 45 e0       
  401645:	f2 0f 11 45 d8       
  40164a:	48 8b 45 d8          
  40164e:	48 89 45 d8          
  401652:	f2 0f 10 45 d8       
  401657:	c9                   
  401658:	c3                   

0000000000401659 <str_trim_str_list>:
  401659:	55                   
  40165a:	48 89 e5             
  40165d:	48 83 ec 30          
  401661:	48 89 7d d8          
  401665:	89 f0                
  401667:	88 45 d4             
  40166a:	66 c7 45 e0 20 09    
  401670:	c6 45 e2 00          
  401674:	48 83 7d d8 00       
  401679:	0f 84 f1 00 00 00    
  40167f:	48 8b 45 d8          
  401683:	0f b6 00             
  401686:	84 c0                
  401688:	0f 84 e2 00 00 00    
  40168e:	48 8b 45 d8          
  401692:	48 89 45 f8          
  401696:	48 8b 45 f8          
  40169a:	48 89 45 f0          
  40169e:	e9 b7 00 00 00       
  4016a3:	48 83 45 f8 01       
  4016a8:	eb 01                
  4016aa:	90                   
  4016ab:	48 8b 45 f8          
  4016af:	0f b6 00             
  4016b2:	84 c0                
  4016b4:	74 38                
  4016b6:	48 8b 45 f8          
  4016ba:	0f b6 00             
  4016bd:	0f be d0             
  4016c0:	48 8d 45 e0          
  4016c4:	89 d6                
  4016c6:	48 89 c7             
  4016c9:	e8 82 f3 ff ff       
  4016ce:	48 85 c0             
  4016d1:	75 d0                
  4016d3:	eb 19                
  4016d5:	48 8b 45 f8          
  4016d9:	0f b6 10             
  4016dc:	48 8b 45 f0          
  4016e0:	88 10                
  4016e2:	48 83 45 f0 01       
  4016e7:	48 83 45 f8 01       
  4016ec:	eb 01                
  4016ee:	90                   
  4016ef:	48 8b 45 f8          
  4016f3:	0f b6 00             
  4016f6:	3a 45 d4             
  4016f9:	74 0b                
  4016fb:	48 8b 45 f8          
  4016ff:	0f b6 00             
  401702:	84 c0                
  401704:	75 cf                
  401706:	48 8b 45 f0          
  40170a:	48 3b 45 d8          
  40170e:	76 27                
  401710:	48 83 6d f0 01       
  401715:	48 8b 45 f0          
  401719:	0f b6 00             
  40171c:	0f be d0             
  40171f:	48 8d 45 e0          
  401723:	89 d6                
  401725:	48 89 c7             
  401728:	e8 23 f3 ff ff       
  40172d:	48 85 c0             
  401730:	75 de                
  401732:	48 83 45 f0 01       
  401737:	48 8b 45 f8          
  40173b:	0f b6 00             
  40173e:	3a 45 d4             
  401741:	75 17                
  401743:	48 8b 45 f8          
  401747:	0f b6 10             
  40174a:	48 8b 45 f0          
  40174e:	88 10                
  401750:	48 83 45 f0 01       
  401755:	48 83 45 f8 01       
  40175a:	48 8b 45 f8          
  40175e:	0f b6 00             
  401761:	84 c0                
  401763:	0f 85 41 ff ff ff    
  401769:	48 8b 45 f0          
  40176d:	c6 00 00             
  401770:	c9                   
  401771:	c3                   

0000000000401772 <str_strarr_add>:
  401772:	55                   
  401773:	48 89 e5             
  401776:	53                   
  401777:	48 83 ec 28          
  40177b:	48 89 7d d8          
  40177f:	48 89 75 d0          
  401783:	c7 45 ec 00 00 00 00 
  40178a:	eb 04                
  40178c:	83 45 ec 01          
  401790:	48 8b 45 d8          
  401794:	48 8b 00             
  401797:	8b 55 ec             
  40179a:	48 63 d2             
  40179d:	48 c1 e2 03          
  4017a1:	48 01 d0             
  4017a4:	48 8b 00             
  4017a7:	48 85 c0             
  4017aa:	75 e0                
  4017ac:	8b 45 ec             
  4017af:	83 c0 02             
  4017b2:	48 98                
  4017b4:	48 8d 14 c5 00 00 00 
  4017bb:	00 
  4017bc:	48 8b 45 d8          
  4017c0:	48 8b 00             
  4017c3:	48 89 d6             
  4017c6:	48 89 c7             
  4017c9:	e8 32 f3 ff ff       
  4017ce:	48 8b 55 d8          
  4017d2:	48 89 02             
  4017d5:	48 8b 45 d8          
  4017d9:	48 8b 00             
  4017dc:	48 85 c0             
  4017df:	75 07                
  4017e1:	b8 ff ff ff ff       
  4017e6:	eb 6b                
  4017e8:	48 8b 45 d8          
  4017ec:	48 8b 00             
  4017ef:	8b 55 ec             
  4017f2:	48 63 d2             
  4017f5:	48 c1 e2 03          
  4017f9:	48 8d 1c 10          
  4017fd:	48 8b 45 d0          
  401801:	48 89 c7             
  401804:	e8 a3 f4 ff ff       
  401809:	48 89 03             
  40180c:	48 8b 45 d8          
  401810:	48 8b 00             
  401813:	8b 55 ec             
  401816:	48 63 d2             
  401819:	48 c1 e2 03          
  40181d:	48 01 d0             
  401820:	48 8b 00             
  401823:	48 85 c0             
  401826:	75 07                
  401828:	b8 ff ff ff ff       
  40182d:	eb 24                
  40182f:	48 8b 45 d8          
  401833:	48 8b 00             
  401836:	83 45 ec 01          
  40183a:	8b 55 ec             
  40183d:	48 63 d2             
  401840:	48 c1 e2 03          
  401844:	48 01 d0             
  401847:	48 c7 00 00 00 00 00 
  40184e:	b8 00 00 00 00       
  401853:	48 83 c4 28          
  401857:	5b                   
  401858:	5d                   
  401859:	c3                   

000000000040185a <str_strarr_init>:
  40185a:	55                   
  40185b:	48 89 e5             
  40185e:	48 83 ec 10          
  401862:	48 89 7d f8          
  401866:	bf 08 00 00 00       
  40186b:	e8 80 f2 ff ff       
  401870:	48 89 c2             
  401873:	48 8b 45 f8          
  401877:	48 89 10             
  40187a:	48 8b 45 f8          
  40187e:	48 8b 00             
  401881:	48 85 c0             
  401884:	75 07                
  401886:	b8 ff ff ff ff       
  40188b:	eb 13                
  40188d:	48 8b 45 f8          
  401891:	48 8b 00             
  401894:	48 c7 00 00 00 00 00 
  40189b:	b8 00 00 00 00       
  4018a0:	c9                   
  4018a1:	c3                   

00000000004018a2 <match_glob>:
  4018a2:	55                   
  4018a3:	48 89 e5             
  4018a6:	53                   
  4018a7:	48 83 ec 38          
  4018ab:	48 89 7d c8          
  4018af:	48 89 75 c0          
  4018b3:	48 8b 45 c8          
  4018b7:	48 89 45 d0          
  4018bb:	48 8b 45 c0          
  4018bf:	48 89 45 e0          
  4018c3:	48 8b 45 e0          
  4018c7:	0f b6 00             
  4018ca:	84 c0                
  4018cc:	75 23                
  4018ce:	48 8b 45 d0          
  4018d2:	0f b6 00             
  4018d5:	84 c0                
  4018d7:	75 07                
  4018d9:	b8 00 00 00 00       
  4018de:	eb 05                
  4018e0:	b8 ff ff ff ff       
  4018e5:	e9 97 01 00 00       
  4018ea:	48 83 45 e0 01       
  4018ef:	eb 01                
  4018f1:	90                   
  4018f2:	48 8b 45 e0          
  4018f6:	0f b6 00             
  4018f9:	3c 2a                
  4018fb:	74 ed                
  4018fd:	48 8b 45 e0          
  401901:	48 89 45 e8          
  401905:	eb 05                
  401907:	48 83 45 e8 01       
  40190c:	48 8b 45 e8          
  401910:	0f b6 00             
  401913:	84 c0                
  401915:	74 0b                
  401917:	48 8b 45 e8          
  40191b:	0f b6 00             
  40191e:	3c 2a                
  401920:	75 e5                
  401922:	48 8b 45 c0          
  401926:	48 3b 45 e0          
  40192a:	75 57                
  40192c:	48 8b 55 e8          
  401930:	48 8b 45 e0          
  401934:	48 89 d1             
  401937:	48 29 c1             
  40193a:	48 89 c8             
  40193d:	48 89 c2             
  401940:	48 8b 4d e0          
  401944:	48 8b 45 d0          
  401948:	48 89 ce             
  40194b:	48 89 c7             
  40194e:	e8 7d f0 ff ff       
  401953:	85 c0                
  401955:	74 0a                
  401957:	b8 ff ff ff ff       
  40195c:	e9 20 01 00 00       
  401961:	48 8b 55 e8          
  401965:	48 8b 45 e0          
  401969:	48 89 d3             
  40196c:	48 29 c3             
  40196f:	48 89 d8             
  401972:	48 01 45 d0          
  401976:	48 8b 45 e8          
  40197a:	48 89 45 e0          
  40197e:	e9 f9 00 00 00       
  401983:	48 8b 45 e8          
  401987:	0f b6 00             
  40198a:	84 c0                
  40198c:	0f 85 87 00 00 00    
  401992:	48 8b 45 d0          
  401996:	48 89 45 d8          
  40199a:	eb 05                
  40199c:	48 83 45 d8 01       
  4019a1:	48 8b 45 d8          
  4019a5:	0f b6 00             
  4019a8:	84 c0                
  4019aa:	75 f0                
  4019ac:	48 8b 55 d8          
  4019b0:	48 8b 45 d0          
  4019b4:	48 89 d1             
  4019b7:	48 29 c1             
  4019ba:	48 8b 55 e8          
  4019be:	48 8b 45 e0          
  4019c2:	48 89 d3             
  4019c5:	48 29 c3             
  4019c8:	48 89 d8             
  4019cb:	48 39 c1             
  4019ce:	7d 0a                
  4019d0:	b8 ff ff ff ff       
  4019d5:	e9 a7 00 00 00       
  4019da:	48 8b 55 e8          
  4019de:	48 8b 45 e0          
  4019e2:	48 89 d1             
  4019e5:	48 29 c1             
  4019e8:	48 89 c8             
  4019eb:	48 89 c2             
  4019ee:	48 f7 da             
  4019f1:	48 8b 45 d8          
  4019f5:	48 01 c2             
  4019f8:	48 8b 45 e0          
  4019fc:	48 89 c6             
  4019ff:	48 89 d7             
  401a02:	e8 99 f0 ff ff       
  401a07:	85 c0                
  401a09:	75 07                
  401a0b:	b8 00 00 00 00       
  401a10:	eb 05                
  401a12:	b8 ff ff ff ff       
  401a17:	eb 68                
  401a19:	48 8b 45 d0          
  401a1d:	0f b6 00             
  401a20:	84 c0                
  401a22:	75 07                
  401a24:	b8 ff ff ff ff       
  401a29:	eb 56                
  401a2b:	48 8b 55 e8          
  401a2f:	48 8b 45 e0          
  401a33:	48 89 d3             
  401a36:	48 29 c3             
  401a39:	48 89 d8             
  401a3c:	48 89 c2             
  401a3f:	48 8b 4d e0          
  401a43:	48 8b 45 d0          
  401a47:	48 89 ce             
  401a4a:	48 89 c7             
  401a4d:	e8 7e ef ff ff       
  401a52:	85 c0                
  401a54:	75 1f                
  401a56:	48 8b 55 e8          
  401a5a:	48 8b 45 e0          
  401a5e:	48 89 d1             
  401a61:	48 29 c1             
  401a64:	48 89 c8             
  401a67:	48 01 45 d0          
  401a6b:	48 8b 45 e8          
  401a6f:	48 89 45 e0          
  401a73:	eb 07                
  401a75:	48 83 45 d0 01       
  401a7a:	eb 9d                
  401a7c:	e9 42 fe ff ff       
  401a81:	48 83 c4 38          
  401a85:	5b                   
  401a86:	5d                   
  401a87:	c3                   

0000000000401a88 <parse_glob>:
  401a88:	55                   
  401a89:	48 89 e5             
  401a8c:	53                   
  401a8d:	48 83 ec 38          
  401a91:	48 89 7d d8          
  401a95:	48 89 75 d0          
  401a99:	48 89 55 c8          
  401a9d:	48 8b 45 d8          
  401aa1:	be 2a 00 00 00       
  401aa6:	48 89 c7             
  401aa9:	e8 a2 ef ff ff       
  401aae:	48 89 45 e8          
  401ab2:	48 83 7d e8 00       
  401ab7:	75 39                
  401ab9:	48 8b 45 d8          
  401abd:	48 89 c7             
  401ac0:	e8 e7 f1 ff ff       
  401ac5:	48 8b 55 d0          
  401ac9:	48 89 02             
  401acc:	48 8b 45 d0          
  401ad0:	48 8b 00             
  401ad3:	48 85 c0             
  401ad6:	75 0a                
  401ad8:	b8 ff ff ff ff       
  401add:	e9 bc 01 00 00       
  401ae2:	48 8b 45 c8          
  401ae6:	48 c7 00 00 00 00 00 
  401aed:	e9 1f 01 00 00       
  401af2:	48 8b 45 e8          
  401af6:	48 83 c0 01          
  401afa:	be 2f 00 00 00       
  401aff:	48 89 c7             
  401b02:	e8 49 ef ff ff       
  401b07:	48 85 c0             
  401b0a:	74 34                
  401b0c:	48 8b 05 4d 26 20 00 
  401b13:	48 8b 55 d8          
  401b17:	49 89 d0             
  401b1a:	b9 82 00 00 00       
  401b1f:	ba d1 33 40 00       
  401b24:	be b0 30 40 00       
  401b29:	48 89 c7             
  401b2c:	b8 00 00 00 00       
  401b31:	e8 7a ef ff ff       
  401b36:	b8 ff ff ff ff       
  401b3b:	e9 5e 01 00 00       
  401b40:	48 8b 45 d8          
  401b44:	48 3b 45 e8          
  401b48:	75 34                
  401b4a:	48 8b 05 0f 26 20 00 
  401b51:	48 8b 55 d8          
  401b55:	49 89 d0             
  401b58:	b9 88 00 00 00       
  401b5d:	ba d1 33 40 00       
  401b62:	be 00 31 40 00       
  401b67:	48 89 c7             
  401b6a:	b8 00 00 00 00       
  401b6f:	e8 3c ef ff ff       
  401b74:	b8 ff ff ff ff       
  401b79:	e9 20 01 00 00       
  401b7e:	48 83 6d e8 01       
  401b83:	48 8b 45 e8          
  401b87:	0f b6 00             
  401b8a:	3c 2f                
  401b8c:	75 b2                
  401b8e:	48 8b 45 d8          
  401b92:	48 89 c7             
  401b95:	e8 12 f1 ff ff       
  401b9a:	48 8b 55 d0          
  401b9e:	48 89 02             
  401ba1:	48 8b 45 d0          
  401ba5:	48 8b 00             
  401ba8:	48 85 c0             
  401bab:	75 0a                
  401bad:	b8 ff ff ff ff       
  401bb2:	e9 e7 00 00 00       
  401bb7:	48 8b 45 d0          
  401bbb:	48 8b 10             
  401bbe:	48 8b 4d e8          
  401bc2:	48 8b 45 d8          
  401bc6:	48 89 cb             
  401bc9:	48 29 c3             
  401bcc:	48 89 d8             
  401bcf:	48 01 d0             
  401bd2:	c6 00 00             
  401bd5:	48 8b 45 e8          
  401bd9:	48 83 c0 01          
  401bdd:	48 89 c7             
  401be0:	e8 c7 f0 ff ff       
  401be5:	48 8b 55 c8          
  401be9:	48 89 02             
  401bec:	48 8b 45 c8          
  401bf0:	48 8b 00             
  401bf3:	48 85 c0             
  401bf6:	75 19                
  401bf8:	48 8b 45 d0          
  401bfc:	48 8b 00             
  401bff:	48 89 c7             
  401c02:	e8 b9 ed ff ff       
  401c07:	b8 ff ff ff ff       
  401c0c:	e9 8d 00 00 00       
  401c11:	48 8b 45 d0          
  401c15:	48 8b 00             
  401c18:	be 2e 31 40 00       
  401c1d:	48 89 c7             
  401c20:	e8 e2 f0 ff ff       
  401c25:	85 c0                
  401c27:	74 3f                
  401c29:	48 8b 45 c8          
  401c2d:	48 8b 00             
  401c30:	48 85 c0             
  401c33:	75 33                
  401c35:	bf 30 31 40 00       
  401c3a:	e8 6d f0 ff ff       
  401c3f:	48 8b 55 c8          
  401c43:	48 89 02             
  401c46:	48 8b 45 c8          
  401c4a:	48 8b 00             
  401c4d:	48 85 c0             
  401c50:	75 16                
  401c52:	48 8b 45 d0          
  401c56:	48 8b 00             
  401c59:	48 89 c7             
  401c5c:	e8 5f ed ff ff       
  401c61:	b8 ff ff ff ff       
  401c66:	eb 36                
  401c68:	48 8b 45 d0          
  401c6c:	48 8b 00             
  401c6f:	0f b6 00             
  401c72:	84 c0                
  401c74:	75 23                
  401c76:	48 8b 45 d8          
  401c7a:	0f b6 00             
  401c7d:	3c 2f                
  401c7f:	75 18                
  401c81:	48 8b 45 d0          
  401c85:	48 8b 00             
  401c88:	c6 00 2f             
  401c8b:	48 8b 45 d0          
  401c8f:	48 8b 00             
  401c92:	48 83 c0 01          
  401c96:	c6 00 00             
  401c99:	b8 00 00 00 00       
  401c9e:	48 83 c4 38          
  401ca2:	5b                   
  401ca3:	5d                   
  401ca4:	c3                   

0000000000401ca5 <parse_cfg_dir>:
  401ca5:	55                   
  401ca6:	48 89 e5             
  401ca9:	48 81 ec d0 00 00 00 
  401cb0:	48 89 bd 48 ff ff ff 
  401cb7:	48 89 b5 40 ff ff ff 
  401cbe:	48 89 95 38 ff ff ff 
  401cc5:	89 8d 34 ff ff ff    
  401ccb:	44 89 85 30 ff ff ff 
  401cd2:	48 c7 85 58 ff ff ff 
  401cd9:	00 00 00 00 
  401cdd:	c7 85 54 ff ff ff ff 
  401ce4:	ff ff ff 
  401ce7:	48 8b 85 48 ff ff ff 
  401cee:	48 89 c7             
  401cf1:	e8 2a ed ff ff       
  401cf6:	48 89 85 60 ff ff ff 
  401cfd:	48 83 bd 60 ff ff ff 
  401d04:	00 
  401d05:	0f 85 c2 00 00 00    
  401d0b:	e9 24 01 00 00       
  401d10:	48 8b 85 68 ff ff ff 
  401d17:	48 8d 48 13          
  401d1b:	48 8b 95 48 ff ff ff 
  401d22:	48 8b 85 58 ff ff ff 
  401d29:	be 32 31 40 00       
  401d2e:	48 89 c7             
  401d31:	b8 00 00 00 00       
  401d36:	e8 eb f1 ff ff       
  401d3b:	48 89 85 58 ff ff ff 
  401d42:	48 8d 95 70 ff ff ff 
  401d49:	48 8b 85 58 ff ff ff 
  401d50:	48 89 d6             
  401d53:	48 89 c7             
  401d56:	e8 95 11 00 00       
  401d5b:	85 c0                
  401d5d:	75 6a                
  401d5f:	8b 45 88             
  401d62:	25 00 f0 00 00       
  401d67:	3d 00 80 00 00       
  401d6c:	75 5b                
  401d6e:	48 83 bd 40 ff ff ff 
  401d75:	00 
  401d76:	74 21                
  401d78:	48 8b 85 68 ff ff ff 
  401d7f:	48 8d 50 13          
  401d83:	48 8b 85 40 ff ff ff 
  401d8a:	48 89 c6             
  401d8d:	48 89 d7             
  401d90:	e8 0d fb ff ff       
  401d95:	85 c0                
  401d97:	75 33                
  401d99:	8b 8d 30 ff ff ff    
  401d9f:	8b 95 34 ff ff ff    
  401da5:	48 8b b5 38 ff ff ff 
  401dac:	48 8b 85 58 ff ff ff 
  401db3:	41 89 c8             
  401db6:	b9 00 00 00 00       
  401dbb:	48 89 c7             
  401dbe:	e8 e1 01 00 00       
  401dc3:	85 c0                
  401dc5:	75 36                
  401dc7:	eb 04                
  401dc9:	90                   
  401dca:	eb 01                
  401dcc:	90                   
  401dcd:	48 8b 85 60 ff ff ff 
  401dd4:	48 89 c7             
  401dd7:	e8 04 ed ff ff       
  401ddc:	48 89 85 68 ff ff ff 
  401de3:	48 83 bd 68 ff ff ff 
  401dea:	00 
  401deb:	0f 85 1f ff ff ff    
  401df1:	c7 85 54 ff ff ff 00 
  401df8:	00 00 00 
  401dfb:	eb 01                
  401dfd:	90                   
  401dfe:	48 8b 85 60 ff ff ff 
  401e05:	48 89 c7             
  401e08:	e8 63 ec ff ff       
  401e0d:	85 c0                
  401e0f:	74 0a                
  401e11:	c7 85 54 ff ff ff ff 
  401e18:	ff ff ff 
  401e1b:	48 83 bd 58 ff ff ff 
  401e22:	00 
  401e23:	74 0f                
  401e25:	48 8b 85 58 ff ff ff 
  401e2c:	48 89 c7             
  401e2f:	e8 8c eb ff ff       
  401e34:	8b 85 54 ff ff ff    
  401e3a:	c9                   
  401e3b:	c3                   

0000000000401e3c <parse_cfg_object>:
  401e3c:	55                   
  401e3d:	48 89 e5             
  401e40:	48 81 ec d0 00 00 00 
  401e47:	48 89 bd 48 ff ff ff 
  401e4e:	48 89 b5 40 ff ff ff 
  401e55:	89 95 3c ff ff ff    
  401e5b:	89 8d 38 ff ff ff    
  401e61:	c7 85 5c ff ff ff ff 
  401e68:	ff ff ff 
  401e6b:	48 c7 85 60 ff ff ff 
  401e72:	00 00 00 00 
  401e76:	48 c7 85 68 ff ff ff 
  401e7d:	00 00 00 00 
  401e81:	48 8d 95 68 ff ff ff 
  401e88:	48 8d 8d 60 ff ff ff 
  401e8f:	48 8b 85 48 ff ff ff 
  401e96:	48 89 ce             
  401e99:	48 89 c7             
  401e9c:	e8 e7 fb ff ff       
  401ea1:	85 c0                
  401ea3:	0f 85 d1 00 00 00    
  401ea9:	48 8b 85 60 ff ff ff 
  401eb0:	48 8d 95 70 ff ff ff 
  401eb7:	48 89 d6             
  401eba:	48 89 c7             
  401ebd:	e8 2e 10 00 00       
  401ec2:	85 c0                
  401ec4:	0f 85 b3 00 00 00    
  401eca:	8b 45 88             
  401ecd:	25 00 f0 00 00       
  401ed2:	3d 00 40 00 00       
  401ed7:	74 6d                
  401ed9:	48 8b 85 68 ff ff ff 
  401ee0:	48 85 c0             
  401ee3:	75 32                
  401ee5:	48 8b 85 60 ff ff ff 
  401eec:	8b 8d 38 ff ff ff    
  401ef2:	8b 95 3c ff ff ff    
  401ef8:	48 8b b5 40 ff ff ff 
  401eff:	41 89 c8             
  401f02:	b9 00 00 00 00       
  401f07:	48 89 c7             
  401f0a:	e8 95 00 00 00       
  401f0f:	89 85 5c ff ff ff    
  401f15:	eb 67                
  401f17:	48 8b 05 42 22 20 00 
  401f1e:	48 8b 95 48 ff ff ff 
  401f25:	49 89 d0             
  401f28:	b9 10 01 00 00       
  401f2d:	ba c0 33 40 00       
  401f32:	be 38 31 40 00       
  401f37:	48 89 c7             
  401f3a:	b8 00 00 00 00       
  401f3f:	e8 6c eb ff ff       
  401f44:	eb 38                
  401f46:	48 8b b5 68 ff ff ff 
  401f4d:	48 8b 85 60 ff ff ff 
  401f54:	8b bd 38 ff ff ff    
  401f5a:	8b 8d 3c ff ff ff    
  401f60:	48 8b 95 40 ff ff ff 
  401f67:	41 89 f8             
  401f6a:	48 89 c7             
  401f6d:	e8 33 fd ff ff       
  401f72:	89 85 5c ff ff ff    
  401f78:	eb 04                
  401f7a:	90                   
  401f7b:	eb 01                
  401f7d:	90                   
  401f7e:	48 8b 85 68 ff ff ff 
  401f85:	48 89 c7             
  401f88:	e8 33 ea ff ff       
  401f8d:	48 8b 85 60 ff ff ff 
  401f94:	48 89 c7             
  401f97:	e8 24 ea ff ff       
  401f9c:	8b 85 5c ff ff ff    
  401fa2:	c9                   
  401fa3:	c3                   

0000000000401fa4 <__parse_cfg_file>:
  401fa4:	55                   
  401fa5:	48 89 e5             
  401fa8:	53                   
  401fa9:	48 81 ec 78 08 00 00 
  401fb0:	48 89 bd a8 f7 ff ff 
  401fb7:	48 89 b5 a0 f7 ff ff 
  401fbe:	89 95 9c f7 ff ff    
  401fc4:	89 8d 98 f7 ff ff    
  401fca:	44 89 85 94 f7 ff ff 
  401fd1:	64 48 8b 04 25 28 00 
  401fd8:	00 00 
  401fda:	48 89 45 e8          
  401fde:	31 c0                
  401fe0:	83 85 9c f7 ff ff 01 
  401fe7:	83 bd 9c f7 ff ff 0a 
  401fee:	7e 37                
  401ff0:	48 8b 05 69 21 20 00 
  401ff7:	48 8b 95 a8 f7 ff ff 
  401ffe:	49 89 d0             
  402001:	b9 3c 01 00 00       
  402006:	ba a0 33 40 00       
  40200b:	be 70 31 40 00       
  402010:	48 89 c7             
  402013:	b8 00 00 00 00       
  402018:	e8 93 ea ff ff       
  40201d:	b8 ff ff ff ff       
  402022:	e9 7a 08 00 00       
  402027:	48 83 bd a8 f7 ff ff 
  40202e:	00 
  40202f:	0f 84 4e 05 00 00    
  402035:	48 8b 85 a8 f7 ff ff 
  40203c:	be b1 31 40 00       
  402041:	48 89 c7             
  402044:	e8 c7 ea ff ff       
  402049:	48 89 85 c8 f7 ff ff 
  402050:	48 83 bd c8 f7 ff ff 
  402057:	00 
  402058:	0f 84 5e 06 00 00    
  40205e:	c7 85 b8 f7 ff ff 01 
  402065:	00 00 00 
  402068:	e9 e3 04 00 00       
  40206d:	48 8d 85 e0 f7 ff ff 
  402074:	be b3 31 40 00       
  402079:	48 89 c7             
  40207c:	e8 0d ed ff ff       
  402081:	48 8d 85 e0 f7 ff ff 
  402088:	be b6 31 40 00       
  40208d:	48 89 c7             
  402090:	e8 72 ec ff ff       
  402095:	0f b6 85 e0 f7 ff ff 
  40209c:	3c 23                
  40209e:	0f 84 a1 04 00 00    
  4020a4:	0f b6 85 e0 f7 ff ff 
  4020ab:	84 c0                
  4020ad:	0f 84 92 04 00 00    
  4020b3:	48 8d 85 e0 f7 ff ff 
  4020ba:	48 89 c7             
  4020bd:	e8 1a ef ff ff       
  4020c2:	85 c0                
  4020c4:	0f 85 0a 06 00 00    
  4020ca:	48 8d 85 e0 f7 ff ff 
  4020d1:	48 89 85 d0 f7 ff ff 
  4020d8:	48 8d 85 e0 f7 ff ff 
  4020df:	be 3d 00 00 00       
  4020e4:	48 89 c7             
  4020e7:	e8 64 e9 ff ff       
  4020ec:	48 89 85 d8 f7 ff ff 
  4020f3:	48 83 bd d8 f7 ff ff 
  4020fa:	00 
  4020fb:	0f 84 7d 06 00 00    
  402101:	48 8b 85 d8 f7 ff ff 
  402108:	c6 00 00             
  40210b:	48 83 85 d8 f7 ff ff 
  402112:	01 
  402113:	48 8b 85 d0 f7 ff ff 
  40211a:	be b6 31 40 00       
  40211f:	48 89 c7             
  402122:	e8 e0 eb ff ff       
  402127:	48 8b 85 d8 f7 ff ff 
  40212e:	be b3 31 40 00       
  402133:	48 89 c7             
  402136:	e8 53 ec ff ff       
  40213b:	48 8b 85 d0 f7 ff ff 
  402142:	be bb 31 40 00       
  402147:	48 89 c7             
  40214a:	e8 51 e9 ff ff       
  40214f:	85 c0                
  402151:	75 3f                
  402153:	8b 8d 94 f7 ff ff    
  402159:	8b 95 9c f7 ff ff    
  40215f:	48 8b b5 a0 f7 ff ff 
  402166:	48 8b 85 d8 f7 ff ff 
  40216d:	48 89 c7             
  402170:	e8 c7 fc ff ff       
  402175:	83 f8 ff             
  402178:	0f 85 ca 03 00 00    
  40217e:	48 8b 85 c8 f7 ff ff 
  402185:	48 89 c7             
  402188:	e8 83 e8 ff ff       
  40218d:	e9 0a 07 00 00       
  402192:	c7 85 bc f7 ff ff 00 
  402199:	00 00 00 
  40219c:	c7 85 b4 f7 ff ff 00 
  4021a3:	00 00 00 
  4021a6:	e9 52 03 00 00       
  4021ab:	8b 85 b4 f7 ff ff    
  4021b1:	48 63 d0             
  4021b4:	48 89 d0             
  4021b7:	48 c1 e0 02          
  4021bb:	48 01 d0             
  4021be:	48 c1 e0 03          
  4021c2:	48 89 c2             
  4021c5:	48 8b 85 a0 f7 ff ff 
  4021cc:	48 01 d0             
  4021cf:	48 8b 00             
  4021d2:	48 8b 95 d0 f7 ff ff 
  4021d9:	48 89 d6             
  4021dc:	48 89 c7             
  4021df:	e8 bc e8 ff ff       
  4021e4:	85 c0                
  4021e6:	0f 85 00 03 00 00    
  4021ec:	c7 85 bc f7 ff ff 01 
  4021f3:	00 00 00 
  4021f6:	8b 85 b4 f7 ff ff    
  4021fc:	48 63 d0             
  4021ff:	48 89 d0             
  402202:	48 c1 e0 02          
  402206:	48 01 d0             
  402209:	48 c1 e0 03          
  40220d:	48 89 c2             
  402210:	48 8b 85 a0 f7 ff ff 
  402217:	48 01 d0             
  40221a:	8b 40 10             
  40221d:	83 f8 04             
  402220:	0f 87 c9 02 00 00    
  402226:	89 c0                
  402228:	48 8b 04 c5 70 33 40 
  40222f:	00 
  402230:	ff e0                
  402232:	48 8d 95 c0 f7 ff ff 
  402239:	48 8b 85 d8 f7 ff ff 
  402240:	be c3 31 40 00       
  402245:	48 89 c7             
  402248:	e8 c9 f2 ff ff       
  40224d:	83 f8 ff             
  402250:	0f 84 7d 05 00 00    
  402256:	8b 85 b4 f7 ff ff    
  40225c:	48 63 d0             
  40225f:	48 89 d0             
  402262:	48 c1 e0 02          
  402266:	48 01 d0             
  402269:	48 c1 e0 03          
  40226d:	48 89 c2             
  402270:	48 8b 85 a0 f7 ff ff 
  402277:	48 01 d0             
  40227a:	48 8b 50 18          
  40227e:	48 8b 85 c0 f7 ff ff 
  402285:	48 39 c2             
  402288:	0f 87 49 05 00 00    
  40228e:	8b 85 b4 f7 ff ff    
  402294:	48 63 d0             
  402297:	48 89 d0             
  40229a:	48 c1 e0 02          
  40229e:	48 01 d0             
  4022a1:	48 c1 e0 03          
  4022a5:	48 89 c2             
  4022a8:	48 8b 85 a0 f7 ff ff 
  4022af:	48 01 d0             
  4022b2:	48 8b 40 20          
  4022b6:	48 85 c0             
  4022b9:	74 38                
  4022bb:	8b 85 b4 f7 ff ff    
  4022c1:	48 63 d0             
  4022c4:	48 89 d0             
  4022c7:	48 c1 e0 02          
  4022cb:	48 01 d0             
  4022ce:	48 c1 e0 03          
  4022d2:	48 89 c2             
  4022d5:	48 8b 85 a0 f7 ff ff 
  4022dc:	48 01 d0             
  4022df:	48 8b 50 20          
  4022e3:	48 8b 85 c0 f7 ff ff 
  4022ea:	48 39 c2             
  4022ed:	0f 82 e4 04 00 00    
  4022f3:	8b 85 b4 f7 ff ff    
  4022f9:	48 63 d0             
  4022fc:	48 89 d0             
  4022ff:	48 c1 e0 02          
  402303:	48 01 d0             
  402306:	48 c1 e0 03          
  40230a:	48 89 c2             
  40230d:	48 8b 85 a0 f7 ff ff 
  402314:	48 01 d0             
  402317:	48 8b 40 08          
  40231b:	48 8b 95 c0 f7 ff ff 
  402322:	89 10                
  402324:	e9 cd 01 00 00       
  402329:	48 8b 85 d8 f7 ff ff 
  402330:	be 2c 00 00 00       
  402335:	48 89 c7             
  402338:	e8 1c f3 ff ff       
  40233d:	8b 85 b4 f7 ff ff    
  402343:	48 63 d0             
  402346:	48 89 d0             
  402349:	48 c1 e0 02          
  40234d:	48 01 d0             
  402350:	48 c1 e0 03          
  402354:	48 89 c2             
  402357:	48 8b 85 a0 f7 ff ff 
  40235e:	48 01 d0             
  402361:	48 8b 58 08          
  402365:	48 8b 85 d8 f7 ff ff 
  40236c:	48 89 c7             
  40236f:	e8 38 e9 ff ff       
  402374:	48 89 03             
  402377:	8b 85 b4 f7 ff ff    
  40237d:	48 63 d0             
  402380:	48 89 d0             
  402383:	48 c1 e0 02          
  402387:	48 01 d0             
  40238a:	48 c1 e0 03          
  40238e:	48 89 c2             
  402391:	48 8b 85 a0 f7 ff ff 
  402398:	48 01 d0             
  40239b:	48 8b 40 08          
  40239f:	48 8b 00             
  4023a2:	48 85 c0             
  4023a5:	0f 85 47 01 00 00    
  4023ab:	e9 7a 03 00 00       
  4023b0:	8b 85 b4 f7 ff ff    
  4023b6:	48 63 d0             
  4023b9:	48 89 d0             
  4023bc:	48 c1 e0 02          
  4023c0:	48 01 d0             
  4023c3:	48 c1 e0 03          
  4023c7:	48 89 c2             
  4023ca:	48 8b 85 a0 f7 ff ff 
  4023d1:	48 01 d0             
  4023d4:	48 8b 40 08          
  4023d8:	48 8b 95 d8 f7 ff ff 
  4023df:	48 89 d6             
  4023e2:	48 89 c7             
  4023e5:	e8 88 f3 ff ff       
  4023ea:	85 c0                
  4023ec:	0f 84 03 01 00 00    
  4023f2:	e9 33 03 00 00       
  4023f7:	48 8d 95 c0 f7 ff ff 
  4023fe:	48 8b 85 d8 f7 ff ff 
  402405:	be c3 31 40 00       
  40240a:	48 89 c7             
  40240d:	e8 04 f1 ff ff       
  402412:	83 f8 ff             
  402415:	0f 84 bb 03 00 00    
  40241b:	8b 85 b4 f7 ff ff    
  402421:	48 63 d0             
  402424:	48 89 d0             
  402427:	48 c1 e0 02          
  40242b:	48 01 d0             
  40242e:	48 c1 e0 03          
  402432:	48 89 c2             
  402435:	48 8b 85 a0 f7 ff ff 
  40243c:	48 01 d0             
  40243f:	48 8b 50 18          
  402443:	48 8b 85 c0 f7 ff ff 
  40244a:	48 39 c2             
  40244d:	0f 87 84 03 00 00    
  402453:	8b 85 b4 f7 ff ff    
  402459:	48 63 d0             
  40245c:	48 89 d0             
  40245f:	48 c1 e0 02          
  402463:	48 01 d0             
  402466:	48 c1 e0 03          
  40246a:	48 89 c2             
  40246d:	48 8b 85 a0 f7 ff ff 
  402474:	48 01 d0             
  402477:	48 8b 40 20          
  40247b:	48 85 c0             
  40247e:	74 38                
  402480:	8b 85 b4 f7 ff ff    
  402486:	48 63 d0             
  402489:	48 89 d0             
  40248c:	48 c1 e0 02          
  402490:	48 01 d0             
  402493:	48 c1 e0 03          
  402497:	48 89 c2             
  40249a:	48 8b 85 a0 f7 ff ff 
  4024a1:	48 01 d0             
  4024a4:	48 8b 50 20          
  4024a8:	48 8b 85 c0 f7 ff ff 
  4024af:	48 39 c2             
  4024b2:	0f 82 1f 03 00 00    
  4024b8:	8b 85 b4 f7 ff ff    
  4024be:	48 63 d0             
  4024c1:	48 89 d0             
  4024c4:	48 c1 e0 02          
  4024c8:	48 01 d0             
  4024cb:	48 c1 e0 03          
  4024cf:	48 89 c2             
  4024d2:	48 8b 85 a0 f7 ff ff 
  4024d9:	48 01 d0             
  4024dc:	48 8b 40 08          
  4024e0:	48 8b 95 c0 f7 ff ff 
  4024e7:	48 89 10             
  4024ea:	eb 0a                
  4024ec:	90                   
  4024ed:	eb 07                
  4024ef:	90                   
  4024f0:	eb 04                
  4024f2:	90                   
  4024f3:	eb 01                
  4024f5:	90                   
  4024f6:	83 85 b4 f7 ff ff 01 
  4024fd:	8b 85 b4 f7 ff ff    
  402503:	48 63 d0             
  402506:	48 89 d0             
  402509:	48 c1 e0 02          
  40250d:	48 01 d0             
  402510:	48 c1 e0 03          
  402514:	48 89 c2             
  402517:	48 8b 85 a0 f7 ff ff 
  40251e:	48 01 d0             
  402521:	48 8b 00             
  402524:	48 85 c0             
  402527:	0f 85 7e fc ff ff    
  40252d:	83 bd bc f7 ff ff 00 
  402534:	75 13                
  402536:	83 bd 94 f7 ff ff 01 
  40253d:	0f 84 05 03 00 00    
  402543:	eb 04                
  402545:	90                   
  402546:	eb 01                
  402548:	90                   
  402549:	83 85 b8 f7 ff ff 01 
  402550:	48 8b 95 c8 f7 ff ff 
  402557:	48 8d 85 e0 f7 ff ff 
  40255e:	be 00 08 00 00       
  402563:	48 89 c7             
  402566:	e8 25 e5 ff ff       
  40256b:	48 85 c0             
  40256e:	0f 85 f9 fa ff ff    
  402574:	48 8b 85 c8 f7 ff ff 
  40257b:	48 89 c7             
  40257e:	e8 8d e4 ff ff       
  402583:	83 bd 9c f7 ff ff 01 
  40258a:	74 0a                
  40258c:	b8 00 00 00 00       
  402591:	e9 0b 03 00 00       
  402596:	c7 85 b4 f7 ff ff 00 
  40259d:	00 00 00 
  4025a0:	e9 dd 00 00 00       
  4025a5:	8b 85 b4 f7 ff ff    
  4025ab:	48 63 d0             
  4025ae:	48 89 d0             
  4025b1:	48 c1 e0 02          
  4025b5:	48 01 d0             
  4025b8:	48 c1 e0 03          
  4025bc:	48 89 c2             
  4025bf:	48 8b 85 a0 f7 ff ff 
  4025c6:	48 01 d0             
  4025c9:	8b 40 14             
  4025cc:	83 f8 01             
  4025cf:	0f 85 9f 00 00 00    
  4025d5:	8b 85 b4 f7 ff ff    
  4025db:	48 63 d0             
  4025de:	48 89 d0             
  4025e1:	48 c1 e0 02          
  4025e5:	48 01 d0             
  4025e8:	48 c1 e0 03          
  4025ec:	48 89 c2             
  4025ef:	48 8b 85 a0 f7 ff ff 
  4025f6:	48 01 d0             
  4025f9:	8b 40 10             
  4025fc:	83 f8 01             
  4025ff:	74 3c                
  402601:	83 f8 04             
  402604:	74 37                
  402606:	85 c0                
  402608:	75 68                
  40260a:	8b 85 b4 f7 ff ff    
  402610:	48 63 d0             
  402613:	48 89 d0             
  402616:	48 c1 e0 02          
  40261a:	48 01 d0             
  40261d:	48 c1 e0 03          
  402621:	48 89 c2             
  402624:	48 8b 85 a0 f7 ff ff 
  40262b:	48 01 d0             
  40262e:	48 8b 40 08          
  402632:	8b 00                
  402634:	85 c0                
  402636:	75 3f                
  402638:	e9 5f 02 00 00       
  40263d:	8b 85 b4 f7 ff ff    
  402643:	48 63 d0             
  402646:	48 89 d0             
  402649:	48 c1 e0 02          
  40264d:	48 01 d0             
  402650:	48 c1 e0 03          
  402654:	48 89 c2             
  402657:	48 8b 85 a0 f7 ff ff 
  40265e:	48 01 d0             
  402661:	48 8b 40 08          
  402665:	48 8b 00             
  402668:	48 85 c0             
  40266b:	75 0d                
  40266d:	e9 2a 02 00 00       
  402672:	eb 07                
  402674:	90                   
  402675:	eb 04                
  402677:	90                   
  402678:	eb 01                
  40267a:	90                   
  40267b:	83 85 b4 f7 ff ff 01 
  402682:	8b 85 b4 f7 ff ff    
  402688:	48 63 d0             
  40268b:	48 89 d0             
  40268e:	48 c1 e0 02          
  402692:	48 01 d0             
  402695:	48 c1 e0 03          
  402699:	48 89 c2             
  40269c:	48 8b 85 a0 f7 ff ff 
  4026a3:	48 01 d0             
  4026a6:	48 8b 00             
  4026a9:	48 85 c0             
  4026ac:	0f 85 f3 fe ff ff    
  4026b2:	b8 00 00 00 00       
  4026b7:	e9 e5 01 00 00       
  4026bc:	90                   
  4026bd:	83 bd 98 f7 ff ff 00 
  4026c4:	0f 84 d1 01 00 00    
  4026ca:	b8 00 00 00 00       
  4026cf:	e9 cd 01 00 00       
  4026d4:	90                   
  4026d5:	48 8b 85 c8 f7 ff ff 
  4026dc:	48 89 c7             
  4026df:	e8 2c e3 ff ff       
  4026e4:	48 8b 05 75 1a 20 00 
  4026eb:	48 8d b5 e0 f7 ff ff 
  4026f2:	8b 8d b8 f7 ff ff    
  4026f8:	48 8b 95 a8 f7 ff ff 
  4026ff:	48 89 14 24          
  402703:	49 89 f1             
  402706:	41 89 c8             
  402709:	b9 b6 01 00 00       
  40270e:	ba a0 33 40 00       
  402713:	be c8 31 40 00       
  402718:	48 89 c7             
  40271b:	b8 00 00 00 00       
  402720:	e8 8b e3 ff ff       
  402725:	e9 72 01 00 00       
  40272a:	48 8b 85 c8 f7 ff ff 
  402731:	48 89 c7             
  402734:	e8 d7 e2 ff ff       
  402739:	48 8b 05 20 1a 20 00 
  402740:	48 8b b5 a8 f7 ff ff 
  402747:	48 8d 8d e0 f7 ff ff 
  40274e:	8b 95 b8 f7 ff ff    
  402754:	89 14 24             
  402757:	49 89 f1             
  40275a:	49 89 c8             
  40275d:	b9 bb 01 00 00       
  402762:	ba a0 33 40 00       
  402767:	be 18 32 40 00       
  40276c:	48 89 c7             
  40276f:	b8 00 00 00 00       
  402774:	e8 37 e3 ff ff       
  402779:	e9 1e 01 00 00       
  40277e:	90                   
  40277f:	48 8b 85 c8 f7 ff ff 
  402786:	48 89 c7             
  402789:	e8 82 e2 ff ff       
  40278e:	48 8b 05 cb 19 20 00 
  402795:	48 8b b5 a8 f7 ff ff 
  40279c:	48 8d 8d e0 f7 ff ff 
  4027a3:	8b 95 b8 f7 ff ff    
  4027a9:	89 14 24             
  4027ac:	49 89 f1             
  4027af:	49 89 c8             
  4027b2:	b9 c0 01 00 00       
  4027b7:	ba a0 33 40 00       
  4027bc:	be 70 32 40 00       
  4027c1:	48 89 c7             
  4027c4:	b8 00 00 00 00       
  4027c9:	e8 e2 e2 ff ff       
  4027ce:	e9 c9 00 00 00       
  4027d3:	90                   
  4027d4:	eb 01                
  4027d6:	90                   
  4027d7:	48 8b 85 c8 f7 ff ff 
  4027de:	48 89 c7             
  4027e1:	e8 2a e2 ff ff       
  4027e6:	8b 85 b4 f7 ff ff    
  4027ec:	48 63 d0             
  4027ef:	48 89 d0             
  4027f2:	48 c1 e0 02          
  4027f6:	48 01 d0             
  4027f9:	48 c1 e0 03          
  4027fd:	48 89 c2             
  402800:	48 8b 85 a0 f7 ff ff 
  402807:	48 01 d0             
  40280a:	48 8b 08             
  40280d:	48 8b 05 4c 19 20 00 
  402814:	48 8b b5 a8 f7 ff ff 
  40281b:	8b 95 b8 f7 ff ff    
  402821:	89 14 24             
  402824:	49 89 f1             
  402827:	49 89 c8             
  40282a:	b9 c5 01 00 00       
  40282f:	ba a0 33 40 00       
  402834:	be e0 32 40 00       
  402839:	48 89 c7             
  40283c:	b8 00 00 00 00       
  402841:	e8 6a e2 ff ff       
  402846:	eb 54                
  402848:	90                   
  402849:	48 8b 85 c8 f7 ff ff 
  402850:	48 89 c7             
  402853:	e8 b8 e1 ff ff       
  402858:	48 8b 05 01 19 20 00 
  40285f:	48 8b b5 a8 f7 ff ff 
  402866:	48 8b 8d d0 f7 ff ff 
  40286d:	8b 95 b8 f7 ff ff    
  402873:	89 14 24             
  402876:	49 89 f1             
  402879:	49 89 c8             
  40287c:	b9 ca 01 00 00       
  402881:	ba a0 33 40 00       
  402886:	be 28 33 40 00       
  40288b:	48 89 c7             
  40288e:	b8 00 00 00 00       
  402893:	e8 18 e2 ff ff       
  402898:	90                   
  402899:	eb 01                
  40289b:	90                   
  40289c:	b8 ff ff ff ff       
  4028a1:	48 8b 55 e8          
  4028a5:	64 48 33 14 25 28 00 
  4028ac:	00 00 
  4028ae:	74 05                
  4028b0:	e8 8b e1 ff ff       
  4028b5:	48 81 c4 78 08 00 00 
  4028bc:	5b                   
  4028bd:	5d                   
  4028be:	c3                   

00000000004028bf <parse_cfg_file>:
  4028bf:	55                   
  4028c0:	48 89 e5             
  4028c3:	48 83 ec 20          
  4028c7:	48 89 7d f8          
  4028cb:	48 89 75 f0          
  4028cf:	89 55 ec             
  4028d2:	89 4d e8             
  4028d5:	8b 4d e8             
  4028d8:	8b 55 ec             
  4028db:	48 8b 75 f0          
  4028df:	48 8b 45 f8          
  4028e3:	41 89 c8             
  4028e6:	89 d1                
  4028e8:	ba 00 00 00 00       
  4028ed:	48 89 c7             
  4028f0:	e8 af f6 ff ff       
  4028f5:	c9                   
  4028f6:	c3                   

00000000004028f7 <INIT_LIST_HEAD>:
  4028f7:	55                   
  4028f8:	48 89 e5             
  4028fb:	48 89 7d f8          
  4028ff:	48 8b 45 f8          
  402903:	48 8b 55 f8          
  402907:	48 89 10             
  40290a:	48 8b 45 f8          
  40290e:	48 8b 55 f8          
  402912:	48 89 50 08          
  402916:	5d                   
  402917:	c3                   

0000000000402918 <__list_add>:
  402918:	55                   
  402919:	48 89 e5             
  40291c:	48 89 7d f8          
  402920:	48 89 75 f0          
  402924:	48 89 55 e8          
  402928:	48 8b 45 e8          
  40292c:	48 8b 55 f8          
  402930:	48 89 50 08          
  402934:	48 8b 45 f8          
  402938:	48 8b 55 e8          
  40293c:	48 89 10             
  40293f:	48 8b 45 f8          
  402943:	48 8b 55 f0          
  402947:	48 89 50 08          
  40294b:	48 8b 45 f0          
  40294f:	48 8b 55 f8          
  402953:	48 89 10             
  402956:	5d                   
  402957:	c3                   

0000000000402958 <list_add>:
  402958:	55                   
  402959:	48 89 e5             
  40295c:	48 83 ec 10          
  402960:	48 89 7d f8          
  402964:	48 89 75 f0          
  402968:	48 8b 45 f0          
  40296c:	48 8b 10             
  40296f:	48 8b 4d f0          
  402973:	48 8b 45 f8          
  402977:	48 89 ce             
  40297a:	48 89 c7             
  40297d:	e8 96 ff ff ff       
  402982:	c9                   
  402983:	c3                   

0000000000402984 <load_cfg>:
  402984:	55                   
  402985:	48 89 e5             
  402988:	48 81 ec 90 01 00 00 
  40298f:	48 8d 95 90 fe ff ff 
  402996:	be c0 34 40 00       
  40299b:	b8 2d 00 00 00       
  4029a0:	48 89 d7             
  4029a3:	48 89 c1             
  4029a6:	f3 48 a5             
  4029a9:	48 8b 05 90 17 20 00 
  4029b0:	48 8d b5 90 fe ff ff 
  4029b7:	b9 01 00 00 00       
  4029bc:	ba 01 00 00 00       
  4029c1:	48 89 c7             
  4029c4:	e8 f6 fe ff ff       
  4029c9:	4c 8b 05 10 18 20 00 
  4029d0:	48 8b 3d e1 17 20 00 
  4029d7:	48 8b 35 12 18 20 00 
  4029de:	4c 8b 0d c3 17 20 00 
  4029e5:	44 8b 15 d4 17 20 00 
  4029ec:	8b 0d be 17 20 00    
  4029f2:	8b 15 a8 17 20 00    
  4029f8:	8b 05 ea 17 20 00    
  4029fe:	4c 89 44 24 10       
  402a03:	48 89 7c 24 08       
  402a08:	48 89 34 24          
  402a0c:	45 89 d0             
  402a0f:	89 c6                
  402a11:	bf f0 33 40 00       
  402a16:	b8 00 00 00 00       
  402a1b:	e8 40 e0 ff ff       
  402a20:	c9                   
  402a21:	c3                   

0000000000402a22 <get_cache_lvsize>:
  402a22:	55                   
  402a23:	48 89 e5             
  402a26:	53                   
  402a27:	48 83 ec 38          
  402a2b:	8b 05 7f 17 20 00    
  402a31:	48 98                
  402a33:	48 c1 e0 02          
  402a37:	48 89 c7             
  402a3a:	e8 b1 e0 ff ff       
  402a3f:	48 89 45 d8          
  402a43:	48 8b 05 5e 17 20 00 
  402a4a:	48 89 45 e0          
  402a4e:	48 c7 45 e8 28 36 40 
  402a55:	00 
  402a56:	48 c7 45 d0 00 00 00 
  402a5d:	00 
  402a5e:	c7 45 cc 00 00 00 00 
  402a65:	48 8b 55 e8          
  402a69:	48 8b 45 e0          
  402a6d:	48 89 d6             
  402a70:	48 89 c7             
  402a73:	e8 a8 e0 ff ff       
  402a78:	48 89 45 d0          
  402a7c:	eb 3c                
  402a7e:	8b 45 cc             
  402a81:	48 98                
  402a83:	48 8d 14 85 00 00 00 
  402a8a:	00 
  402a8b:	48 8b 45 d8          
  402a8f:	48 8d 1c 02          
  402a93:	48 8b 45 d0          
  402a97:	48 89 c7             
  402a9a:	e8 91 e0 ff ff       
  402a9f:	89 03                
  402aa1:	83 45 cc 01          
  402aa5:	48 8b 45 e8          
  402aa9:	48 89 c6             
  402aac:	bf 00 00 00 00       
  402ab1:	e8 6a e0 ff ff       
  402ab6:	48 89 45 d0          
  402aba:	48 83 7d d0 00       
  402abf:	75 bd                
  402ac1:	48 8b 45 d8          
  402ac5:	48 83 c4 38          
  402ac9:	5b                   
  402aca:	5d                   
  402acb:	c3                   

0000000000402acc <get_cache_sways>:
  402acc:	55                   
  402acd:	48 89 e5             
  402ad0:	53                   
  402ad1:	48 83 ec 38          
  402ad5:	8b 05 d5 16 20 00    
  402adb:	48 98                
  402add:	48 c1 e0 02          
  402ae1:	48 89 c7             
  402ae4:	e8 07 e0 ff ff       
  402ae9:	48 89 45 d8          
  402aed:	48 8b 05 fc 16 20 00 
  402af4:	48 89 45 e0          
  402af8:	48 c7 45 e8 28 36 40 
  402aff:	00 
  402b00:	48 c7 45 d0 00 00 00 
  402b07:	00 
  402b08:	c7 45 cc 00 00 00 00 
  402b0f:	48 8b 55 e8          
  402b13:	48 8b 45 e0          
  402b17:	48 89 d6             
  402b1a:	48 89 c7             
  402b1d:	e8 fe df ff ff       
  402b22:	48 89 45 d0          
  402b26:	eb 3c                
  402b28:	8b 45 cc             
  402b2b:	48 98                
  402b2d:	48 8d 14 85 00 00 00 
  402b34:	00 
  402b35:	48 8b 45 d8          
  402b39:	48 8d 1c 02          
  402b3d:	48 8b 45 d0          
  402b41:	48 89 c7             
  402b44:	e8 e7 df ff ff       
  402b49:	89 03                
  402b4b:	83 45 cc 01          
  402b4f:	48 8b 45 e8          
  402b53:	48 89 c6             
  402b56:	bf 00 00 00 00       
  402b5b:	e8 c0 df ff ff       
  402b60:	48 89 45 d0          
  402b64:	48 83 7d d0 00       
  402b69:	75 bd                
  402b6b:	48 8b 45 d8          
  402b6f:	48 83 c4 38          
  402b73:	5b                   
  402b74:	5d                   
  402b75:	c3                   

0000000000402b76 <main>:
  402b76:	55                   
  402b77:	48 89 e5             
  402b7a:	48 83 ec 40          
  402b7e:	c7 45 d0 00 00 00 00 
  402b85:	c7 45 d4 00 00 00 00 
  402b8c:	48 c7 45 e8 00 00 00 
  402b93:	00 
  402b94:	48 c7 45 f0 00 00 00 
  402b9b:	00 
  402b9c:	c7 45 d8 00 00 00 00 
  402ba3:	c7 45 dc 00 00 00 00 
  402baa:	bf 30 36 40 00       
  402baf:	e8 2c de ff ff       
  402bb4:	bf d0 41 60 00       
  402bb9:	e8 39 fd ff ff       
  402bbe:	b8 00 00 00 00       
  402bc3:	e8 bc fd ff ff       
  402bc8:	b8 00 00 00 00       
  402bcd:	e8 50 fe ff ff       
  402bd2:	48 89 45 e8          
  402bd6:	b8 00 00 00 00       
  402bdb:	e8 ec fe ff ff       
  402be0:	48 89 45 f0          
  402be4:	48 83 7d e8 00       
  402be9:	74 07                
  402beb:	48 83 7d f0 00       
  402bf0:	75 14                
  402bf2:	bf 70 36 40 00       
  402bf7:	e8 e4 dd ff ff       
  402bfc:	b8 ff ff ff ff       
  402c01:	e9 5a 02 00 00       
  402c06:	8b 05 b4 15 20 00    
  402c0c:	89 45 e0             
  402c0f:	c7 45 c4 00 00 00 00 
  402c16:	e9 27 02 00 00       
  402c1b:	8b 45 c4             
  402c1e:	48 98                
  402c20:	48 8d 14 85 00 00 00 
  402c27:	00 
  402c28:	48 8b 45 e8          
  402c2c:	48 01 d0             
  402c2f:	8b 00                
  402c31:	89 c6                
  402c33:	bf a4 36 40 00       
  402c38:	b8 00 00 00 00       
  402c3d:	e8 1e de ff ff       
  402c42:	c7 45 e4 00 04 00 00 
  402c49:	c7 45 c8 00 00 00 00 
  402c50:	8b 45 c4             
  402c53:	48 98                
  402c55:	48 8d 14 85 00 00 00 
  402c5c:	00 
  402c5d:	48 8b 45 e8          
  402c61:	48 01 d0             
  402c64:	8b 00                
  402c66:	83 f8 09             
  402c69:	77 7f                
  402c6b:	89 c0                
  402c6d:	48 8b 04 c5 08 37 40 
  402c74:	00 
  402c75:	ff e0                
  402c77:	8b 45 e4             
  402c7a:	c1 e0 04             
  402c7d:	89 45 c8             
  402c80:	eb 71                
  402c82:	8b 45 e4             
  402c85:	c1 e0 05             
  402c88:	89 45 c8             
  402c8b:	eb 66                
  402c8d:	8b 45 e4             
  402c90:	c1 e0 06             
  402c93:	89 45 c8             
  402c96:	eb 5b                
  402c98:	8b 45 e4             
  402c9b:	c1 e0 07             
  402c9e:	89 45 c8             
  402ca1:	eb 50                
  402ca3:	8b 45 e4             
  402ca6:	0f af 45 e4          
  402caa:	89 45 c8             
  402cad:	eb 44                
  402caf:	8b 45 e4             
  402cb2:	0f af 45 e4          
  402cb6:	01 c0                
  402cb8:	89 45 c8             
  402cbb:	eb 36                
  402cbd:	8b 45 e4             
  402cc0:	0f af 45 e4          
  402cc4:	c1 e0 02             
  402cc7:	89 45 c8             
  402cca:	eb 27                
  402ccc:	8b 45 e4             
  402ccf:	0f af 45 e4          
  402cd3:	c1 e0 03             
  402cd6:	89 45 c8             
  402cd9:	eb 18                
  402cdb:	8b 45 e4             
  402cde:	0f af 45 e4          
  402ce2:	c1 e0 04             
  402ce5:	89 45 c8             
  402ce8:	eb 09                
  402cea:	8b 45 e4             
  402ced:	c1 e0 06             
  402cf0:	89 45 c8             
  402cf3:	90                   
  402cf4:	8b 45 c8             
  402cf7:	89 45 d8             
  402cfa:	8b 45 d8             
  402cfd:	89 c6                
  402cff:	bf b2 36 40 00       
  402d04:	b8 00 00 00 00       
  402d09:	e8 52 dd ff ff       
  402d0e:	8b 45 c4             
  402d11:	48 98                
  402d13:	48 8d 14 85 00 00 00 
  402d1a:	00 
  402d1b:	48 8b 45 f0          
  402d1f:	48 01 d0             
  402d22:	8b 00                
  402d24:	89 45 dc             
  402d27:	8b 45 d8             
  402d2a:	89 c2                
  402d2c:	c1 fa 1f             
  402d2f:	f7 7d e0             
  402d32:	89 c2                
  402d34:	c1 fa 1f             
  402d37:	f7 7d dc             
  402d3a:	89 45 d4             
  402d3d:	8b 45 d4             
  402d40:	48 98                
  402d42:	48 83 c0 08          
  402d46:	48 c1 e0 03          
  402d4a:	48 89 c7             
  402d4d:	e8 9e dd ff ff       
  402d52:	48 89 45 f8          
  402d56:	48 83 7d f8 00       
  402d5b:	75 14                
  402d5d:	bf c4 36 40 00       
  402d62:	e8 79 dc ff ff       
  402d67:	b8 ff ff ff ff       
  402d6c:	e9 ef 00 00 00       
  402d71:	8b 45 c4             
  402d74:	83 c0 01             
  402d77:	89 c6                
  402d79:	bf da 36 40 00       
  402d7e:	b8 00 00 00 00       
  402d83:	e8 d8 dc ff ff       
  402d88:	48 8b 45 f8          
  402d8c:	48 89 c7             
  402d8f:	e8 63 fb ff ff       
  402d94:	48 8b 45 f8          
  402d98:	48 89 c6             
  402d9b:	bf d0 41 60 00       
  402da0:	e8 b3 fb ff ff       
  402da5:	8b 05 f5 13 20 00    
  402dab:	89 c2                
  402dad:	48 8b 45 f8          
  402db1:	89 50 10             
  402db4:	8b 55 c4             
  402db7:	48 8b 45 f8          
  402dbb:	89 50 14             
  402dbe:	48 8b 45 f8          
  402dc2:	c7 40 18 01 00 00 00 
  402dc9:	48 8b 45 f8          
  402dcd:	c7 40 1c 02 00 00 00 
  402dd4:	48 8b 45 f8          
  402dd8:	c7 40 24 02 00 00 00 
  402ddf:	48 8b 45 f8          
  402de3:	48 c7 40 28 00 41 60 
  402dea:	00 
  402deb:	48 8b 45 f8          
  402def:	48 c7 40 30 00 00 00 
  402df6:	00 
  402df7:	48 8b 45 f8          
  402dfb:	48 c7 40 38 00 00 00 
  402e02:	00 
  402e03:	c7 45 cc 00 00 00 00 
  402e0a:	eb 2a                
  402e0c:	8b 45 dc             
  402e0f:	48 98                
  402e11:	48 c1 e0 04          
  402e15:	48 89 c7             
  402e18:	e8 d3 dc ff ff       
  402e1d:	48 89 c2             
  402e20:	48 8b 45 f8          
  402e24:	8b 4d cc             
  402e27:	48 63 c9             
  402e2a:	48 83 c1 08          
  402e2e:	48 89 14 c8          
  402e32:	83 45 cc 01          
  402e36:	8b 45 cc             
  402e39:	3b 45 d4             
  402e3c:	7c ce                
  402e3e:	83 45 c4 01          
  402e42:	8b 05 68 13 20 00    
  402e48:	39 45 c4             
  402e4b:	0f 8c ca fd ff ff    
  402e51:	bf f2 36 40 00       
  402e56:	e8 85 db ff ff       
  402e5b:	b8 00 00 00 00       
  402e60:	c9                   
  402e61:	c3                   
  402e62:	66 2e 0f 1f 84 00 00 
  402e69:	00 00 00 
  402e6c:	0f 1f 40 00          

0000000000402e70 <__libc_csu_init>:
  402e70:	41 57                
  402e72:	41 56                
  402e74:	41 89 ff             
  402e77:	41 55                
  402e79:	41 54                
  402e7b:	4c 8d 25 8e 0f 20 00 
  402e82:	55                   
  402e83:	48 8d 2d 8e 0f 20 00 
  402e8a:	53                   
  402e8b:	49 89 f6             
  402e8e:	49 89 d5             
  402e91:	4c 29 e5             
  402e94:	48 83 ec 08          
  402e98:	48 c1 fd 03          
  402e9c:	e8 e7 da ff ff       
  402ea1:	48 85 ed             
  402ea4:	74 20                
  402ea6:	31 db                
  402ea8:	0f 1f 84 00 00 00 00 
  402eaf:	00 
  402eb0:	4c 89 ea             
  402eb3:	4c 89 f6             
  402eb6:	44 89 ff             
  402eb9:	41 ff 14 dc          
  402ebd:	48 83 c3 01          
  402ec1:	48 39 eb             
  402ec4:	75 ea                
  402ec6:	48 83 c4 08          
  402eca:	5b                   
  402ecb:	5d                   
  402ecc:	41 5c                
  402ece:	41 5d                
  402ed0:	41 5e                
  402ed2:	41 5f                
  402ed4:	c3                   
  402ed5:	90                   
  402ed6:	66 2e 0f 1f 84 00 00 
  402edd:	00 00 00 

0000000000402ee0 <__libc_csu_fini>:
  402ee0:	f3 c3                
  402ee2:	66 2e 0f 1f 84 00 00 
  402ee9:	00 00 00 
  402eec:	0f 1f 40 00          

0000000000402ef0 <__stat>:
  402ef0:	48 89 f2             
  402ef3:	48 89 fe             
  402ef6:	bf 01 00 00 00       
  402efb:	e9 d0 db ff ff       

Disassembly of section .fini:

0000000000402f00 <_fini>:
  402f00:	48 83 ec 08          
  402f04:	48 83 c4 08          
  402f08:	c3                   
